---
triple:          'arm64-apple-darwin'
binary-path:     'bin/shapesDemo'
relocations:
  - { offset: 0x8D, size: 0x8, addend: 0x0, symName: __ZNSt3__114in_place_indexILm0EEE, symObjAddr: 0x17D2, symBinAddr: 0x100003E2A, symSize: 0x0 }
  - { offset: 0xD2, size: 0x8, addend: 0x0, symName: __ZNSt3__114in_place_indexILm1EEE, symObjAddr: 0x17D1, symBinAddr: 0x100003E29, symSize: 0x0 }
  - { offset: 0x117, size: 0x8, addend: 0x0, symName: __ZNSt3__114in_place_indexILm2EEE, symObjAddr: 0x17D0, symBinAddr: 0x100003E28, symSize: 0x0 }
  - { offset: 0x15C, size: 0x8, addend: 0x0, symName: __ZNSt3__114in_place_indexILm3EEE, symObjAddr: 0x17CF, symBinAddr: 0x100003E27, symSize: 0x0 }
  - { offset: 0x1A1, size: 0x8, addend: 0x0, symName: __ZNSt3__114in_place_indexILm4EEE, symObjAddr: 0x17CE, symBinAddr: 0x100003E26, symSize: 0x0 }
  - { offset: 0x1E6, size: 0x8, addend: 0x0, symName: __ZNSt3__114in_place_indexILm5EEE, symObjAddr: 0x17CD, symBinAddr: 0x100003E25, symSize: 0x0 }
  - { offset: 0x22B, size: 0x8, addend: 0x0, symName: __ZNSt3__114in_place_indexILm6EEE, symObjAddr: 0x17D5, symBinAddr: 0x100003E2D, symSize: 0x0 }
  - { offset: 0x270, size: 0x8, addend: 0x0, symName: __ZNSt3__114in_place_indexILm7EEE, symObjAddr: 0x17D4, symBinAddr: 0x100003E2C, symSize: 0x0 }
  - { offset: 0x2B5, size: 0x8, addend: 0x0, symName: __ZNSt3__114in_place_indexILm8EEE, symObjAddr: 0x17D3, symBinAddr: 0x100003E2B, symSize: 0x0 }
  - { offset: 0x2FA, size: 0x8, addend: 0x0, symName: __ZNSt3__114in_place_indexILm9EEE, symObjAddr: 0x17D7, symBinAddr: 0x100003E2F, symSize: 0x0 }
  - { offset: 0x33F, size: 0x8, addend: 0x0, symName: __ZNSt3__114in_place_indexILm10EEE, symObjAddr: 0x17D6, symBinAddr: 0x100003E2E, symSize: 0x0 }
  - { offset: 0xF56E, size: 0x8, addend: 0x0, symName: __ZNSt3__16chrono13duration_castB8ne180100INS0_8durationIfNS_5ratioILl1ELl1EEEEExNS3_ILl1ELl1000000EEELi0EEET_RKNS2_IT0_T1_EE, symObjAddr: 0xD60, symBinAddr: 0x1000025D8, symSize: 0x30 }
  - { offset: 0x14362, size: 0x8, addend: 0x0, symName: __ZNSt3__119__libcpp_deallocateB8ne180100EPvmm, symObjAddr: 0x9F4, symBinAddr: 0x10000226C, symSize: 0x60 }
  - { offset: 0x143C7, size: 0x8, addend: 0x0, symName: __ZNSt3__124__is_overaligned_for_newB8ne180100Em, symObjAddr: 0xA64, symBinAddr: 0x1000022DC, symSize: 0x20 }
  - { offset: 0x143F5, size: 0x8, addend: 0x0, symName: __ZNSt3__127__do_deallocate_handle_sizeB8ne180100IJSt11align_val_tEEEvPvmDpT_, symObjAddr: 0xA84, symBinAddr: 0x1000022FC, symSize: 0x30 }
  - { offset: 0x14448, size: 0x8, addend: 0x0, symName: __ZNSt3__127__do_deallocate_handle_sizeB8ne180100IJEEEvPvmDpT_, symObjAddr: 0xAB4, symBinAddr: 0x10000232C, symSize: 0x28 }
  - { offset: 0x14486, size: 0x8, addend: 0x0, symName: __ZNSt3__124__libcpp_operator_deleteB8ne180100IJPvSt11align_val_tEEEvDpT_, symObjAddr: 0xADC, symBinAddr: 0x100002354, symSize: 0x2C }
  - { offset: 0x144CF, size: 0x8, addend: 0x0, symName: __ZNSt3__124__libcpp_operator_deleteB8ne180100IJPvEEEvDpT_, symObjAddr: 0xB08, symBinAddr: 0x100002380, symSize: 0x24 }
  - { offset: 0x14504, size: 0x8, addend: 0x0, symName: __ZNSt3__117holds_alternativeB8ne180100IN2sf5Event6ClosedEJS3_NS2_7ResizedENS2_9FocusLostENS2_11FocusGainedENS2_11TextEnteredENS2_10KeyPressedENS2_11KeyReleasedENS2_18MouseWheelScrolledENS2_18MouseButtonPressedENS2_19MouseButtonReleasedENS2_10MouseMovedENS2_13MouseMovedRawENS2_12MouseEnteredENS2_9MouseLeftENS2_21JoystickButtonPressedENS2_22JoystickButtonReleasedENS2_13JoystickMovedENS2_17JoystickConnectedENS2_20JoystickDisconnectedENS2_10TouchBeganENS2_10TouchMovedENS2_10TouchEndedENS2_13SensorChangedEEEEbRKNS_7variantIJDpT0_EEE, symObjAddr: 0xF24, symBinAddr: 0x10000279C, symSize: 0x28 }
  - { offset: 0x145B4, size: 0x8, addend: 0x0, symName: __ZNSt3__119__holds_alternativeB8ne180100ILm0EJN2sf5Event6ClosedENS2_7ResizedENS2_9FocusLostENS2_11FocusGainedENS2_11TextEnteredENS2_10KeyPressedENS2_11KeyReleasedENS2_18MouseWheelScrolledENS2_18MouseButtonPressedENS2_19MouseButtonReleasedENS2_10MouseMovedENS2_13MouseMovedRawENS2_12MouseEnteredENS2_9MouseLeftENS2_21JoystickButtonPressedENS2_22JoystickButtonReleasedENS2_13JoystickMovedENS2_17JoystickConnectedENS2_20JoystickDisconnectedENS2_10TouchBeganENS2_10TouchMovedENS2_10TouchEndedENS2_13SensorChangedEEEEbRKNS_7variantIJDpT0_EEE, symObjAddr: 0xF4C, symBinAddr: 0x1000027C4, symSize: 0x30 }
  - { offset: 0x14665, size: 0x8, addend: 0x0, symName: __ZNSt3__117holds_alternativeB8ne180100IN2sf5Event7ResizedEJNS2_6ClosedES3_NS2_9FocusLostENS2_11FocusGainedENS2_11TextEnteredENS2_10KeyPressedENS2_11KeyReleasedENS2_18MouseWheelScrolledENS2_18MouseButtonPressedENS2_19MouseButtonReleasedENS2_10MouseMovedENS2_13MouseMovedRawENS2_12MouseEnteredENS2_9MouseLeftENS2_21JoystickButtonPressedENS2_22JoystickButtonReleasedENS2_13JoystickMovedENS2_17JoystickConnectedENS2_20JoystickDisconnectedENS2_10TouchBeganENS2_10TouchMovedENS2_10TouchEndedENS2_13SensorChangedEEEEbRKNS_7variantIJDpT0_EEE, symObjAddr: 0xFEC, symBinAddr: 0x100002864, symSize: 0x28 }
  - { offset: 0x14715, size: 0x8, addend: 0x0, symName: __ZNSt3__119__holds_alternativeB8ne180100ILm1EJN2sf5Event6ClosedENS2_7ResizedENS2_9FocusLostENS2_11FocusGainedENS2_11TextEnteredENS2_10KeyPressedENS2_11KeyReleasedENS2_18MouseWheelScrolledENS2_18MouseButtonPressedENS2_19MouseButtonReleasedENS2_10MouseMovedENS2_13MouseMovedRawENS2_12MouseEnteredENS2_9MouseLeftENS2_21JoystickButtonPressedENS2_22JoystickButtonReleasedENS2_13JoystickMovedENS2_17JoystickConnectedENS2_20JoystickDisconnectedENS2_10TouchBeganENS2_10TouchMovedENS2_10TouchEndedENS2_13SensorChangedEEEEbRKNS_7variantIJDpT0_EEE, symObjAddr: 0x1014, symBinAddr: 0x10000288C, symSize: 0x30 }
  - { offset: 0x147C6, size: 0x8, addend: 0x0, symName: __ZNSt3__16get_ifB8ne180100IN2sf5Event10KeyPressedEJNS2_6ClosedENS2_7ResizedENS2_9FocusLostENS2_11FocusGainedENS2_11TextEnteredES3_NS2_11KeyReleasedENS2_18MouseWheelScrolledENS2_18MouseButtonPressedENS2_19MouseButtonReleasedENS2_10MouseMovedENS2_13MouseMovedRawENS2_12MouseEnteredENS2_9MouseLeftENS2_21JoystickButtonPressedENS2_22JoystickButtonReleasedENS2_13JoystickMovedENS2_17JoystickConnectedENS2_20JoystickDisconnectedENS2_10TouchBeganENS2_10TouchMovedENS2_10TouchEndedENS2_13SensorChangedEEEEu13__add_pointerIKT_EPKNS_7variantIJDpT0_EEE, symObjAddr: 0x1044, symBinAddr: 0x1000028BC, symSize: 0x24 }
  - { offset: 0x14876, size: 0x8, addend: 0x0, symName: __ZNSt3__16get_ifB8ne180100ILm5EJN2sf5Event6ClosedENS2_7ResizedENS2_9FocusLostENS2_11FocusGainedENS2_11TextEnteredENS2_10KeyPressedENS2_11KeyReleasedENS2_18MouseWheelScrolledENS2_18MouseButtonPressedENS2_19MouseButtonReleasedENS2_10MouseMovedENS2_13MouseMovedRawENS2_12MouseEnteredENS2_9MouseLeftENS2_21JoystickButtonPressedENS2_22JoystickButtonReleasedENS2_13JoystickMovedENS2_17JoystickConnectedENS2_20JoystickDisconnectedENS2_10TouchBeganENS2_10TouchMovedENS2_10TouchEndedENS2_13SensorChangedEEEEu13__add_pointerIKNS_19variant_alternativeIXT_ENS_7variantIJDpT0_EEEE4typeEEPKSU_, symObjAddr: 0x1068, symBinAddr: 0x1000028E0, symSize: 0x24 }
  - { offset: 0x14927, size: 0x8, addend: 0x0, symName: __ZNSt3__116__generic_get_ifB8ne180100ILm5EKNS_7variantIJN2sf5Event6ClosedENS3_7ResizedENS3_9FocusLostENS3_11FocusGainedENS3_11TextEnteredENS3_10KeyPressedENS3_11KeyReleasedENS3_18MouseWheelScrolledENS3_18MouseButtonPressedENS3_19MouseButtonReleasedENS3_10MouseMovedENS3_13MouseMovedRawENS3_12MouseEnteredENS3_9MouseLeftENS3_21JoystickButtonPressedENS3_22JoystickButtonReleasedENS3_13JoystickMovedENS3_17JoystickConnectedENS3_20JoystickDisconnectedENS3_10TouchBeganENS3_10TouchMovedENS3_10TouchEndedENS3_13SensorChangedEEEEEEPDaPT0_, symObjAddr: 0x108C, symBinAddr: 0x100002904, symSize: 0x70 }
  - { offset: 0x14970, size: 0x8, addend: 0x0, symName: __ZNSt3__119__holds_alternativeB8ne180100ILm5EJN2sf5Event6ClosedENS2_7ResizedENS2_9FocusLostENS2_11FocusGainedENS2_11TextEnteredENS2_10KeyPressedENS2_11KeyReleasedENS2_18MouseWheelScrolledENS2_18MouseButtonPressedENS2_19MouseButtonReleasedENS2_10MouseMovedENS2_13MouseMovedRawENS2_12MouseEnteredENS2_9MouseLeftENS2_21JoystickButtonPressedENS2_22JoystickButtonReleasedENS2_13JoystickMovedENS2_17JoystickConnectedENS2_20JoystickDisconnectedENS2_10TouchBeganENS2_10TouchMovedENS2_10TouchEndedENS2_13SensorChangedEEEEbRKNS_7variantIJDpT0_EEE, symObjAddr: 0x10FC, symBinAddr: 0x100002974, symSize: 0x30 }
  - { offset: 0x14A21, size: 0x8, addend: 0x0, symName: __ZNSt3__16get_ifB8ne180100IN2sf5Event18MouseButtonPressedEJNS2_6ClosedENS2_7ResizedENS2_9FocusLostENS2_11FocusGainedENS2_11TextEnteredENS2_10KeyPressedENS2_11KeyReleasedENS2_18MouseWheelScrolledES3_NS2_19MouseButtonReleasedENS2_10MouseMovedENS2_13MouseMovedRawENS2_12MouseEnteredENS2_9MouseLeftENS2_21JoystickButtonPressedENS2_22JoystickButtonReleasedENS2_13JoystickMovedENS2_17JoystickConnectedENS2_20JoystickDisconnectedENS2_10TouchBeganENS2_10TouchMovedENS2_10TouchEndedENS2_13SensorChangedEEEEu13__add_pointerIKT_EPKNS_7variantIJDpT0_EEE, symObjAddr: 0x123C, symBinAddr: 0x100002AB4, symSize: 0x24 }
  - { offset: 0x14AD1, size: 0x8, addend: 0x0, symName: __ZNSt3__16get_ifB8ne180100ILm8EJN2sf5Event6ClosedENS2_7ResizedENS2_9FocusLostENS2_11FocusGainedENS2_11TextEnteredENS2_10KeyPressedENS2_11KeyReleasedENS2_18MouseWheelScrolledENS2_18MouseButtonPressedENS2_19MouseButtonReleasedENS2_10MouseMovedENS2_13MouseMovedRawENS2_12MouseEnteredENS2_9MouseLeftENS2_21JoystickButtonPressedENS2_22JoystickButtonReleasedENS2_13JoystickMovedENS2_17JoystickConnectedENS2_20JoystickDisconnectedENS2_10TouchBeganENS2_10TouchMovedENS2_10TouchEndedENS2_13SensorChangedEEEEu13__add_pointerIKNS_19variant_alternativeIXT_ENS_7variantIJDpT0_EEEE4typeEEPKSU_, symObjAddr: 0x1260, symBinAddr: 0x100002AD8, symSize: 0x24 }
  - { offset: 0x14B82, size: 0x8, addend: 0x0, symName: __ZNSt3__116__generic_get_ifB8ne180100ILm8EKNS_7variantIJN2sf5Event6ClosedENS3_7ResizedENS3_9FocusLostENS3_11FocusGainedENS3_11TextEnteredENS3_10KeyPressedENS3_11KeyReleasedENS3_18MouseWheelScrolledENS3_18MouseButtonPressedENS3_19MouseButtonReleasedENS3_10MouseMovedENS3_13MouseMovedRawENS3_12MouseEnteredENS3_9MouseLeftENS3_21JoystickButtonPressedENS3_22JoystickButtonReleasedENS3_13JoystickMovedENS3_17JoystickConnectedENS3_20JoystickDisconnectedENS3_10TouchBeganENS3_10TouchMovedENS3_10TouchEndedENS3_13SensorChangedEEEEEEPDaPT0_, symObjAddr: 0x1284, symBinAddr: 0x100002AFC, symSize: 0x70 }
  - { offset: 0x14BCB, size: 0x8, addend: 0x0, symName: __ZNSt3__119__holds_alternativeB8ne180100ILm8EJN2sf5Event6ClosedENS2_7ResizedENS2_9FocusLostENS2_11FocusGainedENS2_11TextEnteredENS2_10KeyPressedENS2_11KeyReleasedENS2_18MouseWheelScrolledENS2_18MouseButtonPressedENS2_19MouseButtonReleasedENS2_10MouseMovedENS2_13MouseMovedRawENS2_12MouseEnteredENS2_9MouseLeftENS2_21JoystickButtonPressedENS2_22JoystickButtonReleasedENS2_13JoystickMovedENS2_17JoystickConnectedENS2_20JoystickDisconnectedENS2_10TouchBeganENS2_10TouchMovedENS2_10TouchEndedENS2_13SensorChangedEEEEbRKNS_7variantIJDpT0_EEE, symObjAddr: 0x12F4, symBinAddr: 0x100002B6C, symSize: 0x30 }
  - { offset: 0x14C7C, size: 0x8, addend: 0x0, symName: __ZNSt3__16get_ifB8ne180100IN2sf5Event10MouseMovedEJNS2_6ClosedENS2_7ResizedENS2_9FocusLostENS2_11FocusGainedENS2_11TextEnteredENS2_10KeyPressedENS2_11KeyReleasedENS2_18MouseWheelScrolledENS2_18MouseButtonPressedENS2_19MouseButtonReleasedES3_NS2_13MouseMovedRawENS2_12MouseEnteredENS2_9MouseLeftENS2_21JoystickButtonPressedENS2_22JoystickButtonReleasedENS2_13JoystickMovedENS2_17JoystickConnectedENS2_20JoystickDisconnectedENS2_10TouchBeganENS2_10TouchMovedENS2_10TouchEndedENS2_13SensorChangedEEEEu13__add_pointerIKT_EPKNS_7variantIJDpT0_EEE, symObjAddr: 0x14A0, symBinAddr: 0x100002D18, symSize: 0x24 }
  - { offset: 0x14D2C, size: 0x8, addend: 0x0, symName: __ZNSt3__16get_ifB8ne180100ILm10EJN2sf5Event6ClosedENS2_7ResizedENS2_9FocusLostENS2_11FocusGainedENS2_11TextEnteredENS2_10KeyPressedENS2_11KeyReleasedENS2_18MouseWheelScrolledENS2_18MouseButtonPressedENS2_19MouseButtonReleasedENS2_10MouseMovedENS2_13MouseMovedRawENS2_12MouseEnteredENS2_9MouseLeftENS2_21JoystickButtonPressedENS2_22JoystickButtonReleasedENS2_13JoystickMovedENS2_17JoystickConnectedENS2_20JoystickDisconnectedENS2_10TouchBeganENS2_10TouchMovedENS2_10TouchEndedENS2_13SensorChangedEEEEu13__add_pointerIKNS_19variant_alternativeIXT_ENS_7variantIJDpT0_EEEE4typeEEPKSU_, symObjAddr: 0x14C4, symBinAddr: 0x100002D3C, symSize: 0x24 }
  - { offset: 0x14DDD, size: 0x8, addend: 0x0, symName: __ZNSt3__116__generic_get_ifB8ne180100ILm10EKNS_7variantIJN2sf5Event6ClosedENS3_7ResizedENS3_9FocusLostENS3_11FocusGainedENS3_11TextEnteredENS3_10KeyPressedENS3_11KeyReleasedENS3_18MouseWheelScrolledENS3_18MouseButtonPressedENS3_19MouseButtonReleasedENS3_10MouseMovedENS3_13MouseMovedRawENS3_12MouseEnteredENS3_9MouseLeftENS3_21JoystickButtonPressedENS3_22JoystickButtonReleasedENS3_13JoystickMovedENS3_17JoystickConnectedENS3_20JoystickDisconnectedENS3_10TouchBeganENS3_10TouchMovedENS3_10TouchEndedENS3_13SensorChangedEEEEEEPDaPT0_, symObjAddr: 0x14E8, symBinAddr: 0x100002D60, symSize: 0x70 }
  - { offset: 0x14E26, size: 0x8, addend: 0x0, symName: __ZNSt3__119__holds_alternativeB8ne180100ILm10EJN2sf5Event6ClosedENS2_7ResizedENS2_9FocusLostENS2_11FocusGainedENS2_11TextEnteredENS2_10KeyPressedENS2_11KeyReleasedENS2_18MouseWheelScrolledENS2_18MouseButtonPressedENS2_19MouseButtonReleasedENS2_10MouseMovedENS2_13MouseMovedRawENS2_12MouseEnteredENS2_9MouseLeftENS2_21JoystickButtonPressedENS2_22JoystickButtonReleasedENS2_13JoystickMovedENS2_17JoystickConnectedENS2_20JoystickDisconnectedENS2_10TouchBeganENS2_10TouchMovedENS2_10TouchEndedENS2_13SensorChangedEEEEbRKNS_7variantIJDpT0_EEE, symObjAddr: 0x1558, symBinAddr: 0x100002DD0, symSize: 0x30 }
  - { offset: 0x1BD73, size: 0x8, addend: 0x0, symName: __ZNKSt3__16chrono15__duration_castINS0_8durationIxNS_5ratioILl1ELl1000000EEEEENS2_IfNS3_ILl1ELl1EEEEES4_Lb1ELb0EEclB8ne180100ERKS5_, symObjAddr: 0xD90, symBinAddr: 0x100002608, symSize: 0x50 }
  - { offset: 0x1BDB2, size: 0x8, addend: 0x0, symName: _main, symObjAddr: 0x0, symBinAddr: 0x100001878, symSize: 0x440 }
  - { offset: 0x1BEAB, size: 0x8, addend: 0x0, symName: __ZN2sf15ContextSettingsC1Ev, symObjAddr: 0x440, symBinAddr: 0x100001CB8, symSize: 0x2C }
  - { offset: 0x1BED7, size: 0x8, addend: 0x0, symName: __ZN2sf7Vector2IjEC1Ejj, symObjAddr: 0x46C, symBinAddr: 0x100001CE4, symSize: 0x3C }
  - { offset: 0x1BF1F, size: 0x8, addend: 0x0, symName: __ZN2sf6StringD1Ev, symObjAddr: 0x4A8, symBinAddr: 0x100001D20, symSize: 0x2C }
  - { offset: 0x1BF4B, size: 0x8, addend: 0x0, symName: __ZN2sf5ClockC1Ev, symObjAddr: 0x4D4, symBinAddr: 0x100001D4C, symSize: 0x2C }
  - { offset: 0x1BF77, size: 0x8, addend: 0x0, symName: __ZNK2sf4Time9asSecondsEv, symObjAddr: 0x500, symBinAddr: 0x100001D78, symSize: 0x34 }
  - { offset: 0x1BF9F, size: 0x8, addend: 0x0, symName: __ZNKSt3__18optionalIN2sf5EventEEcvbB8ne180100Ev, symObjAddr: 0x534, symBinAddr: 0x100001DAC, symSize: 0x28 }
  - { offset: 0x1BFC5, size: 0x8, addend: 0x0, symName: __ZNKSt3__18optionalIN2sf5EventEEptB8ne180100Ev, symObjAddr: 0x55C, symBinAddr: 0x100001DD4, symSize: 0x24 }
  - { offset: 0x1BFF0, size: 0x8, addend: 0x0, symName: __ZNK2sf5Event2isINS0_6ClosedEEEbv, symObjAddr: 0x580, symBinAddr: 0x100001DF8, symSize: 0x28 }
  - { offset: 0x1C01F, size: 0x8, addend: 0x0, symName: __ZNK2sf5Event2isINS0_7ResizedEEEbv, symObjAddr: 0x5A8, symBinAddr: 0x100001E20, symSize: 0x28 }
  - { offset: 0x1C04E, size: 0x8, addend: 0x0, symName: __ZN2sf7Vector2IfEC1Eff, symObjAddr: 0x5D0, symBinAddr: 0x100001E48, symSize: 0x3C }
  - { offset: 0x1C096, size: 0x8, addend: 0x0, symName: __ZNK2sf7Vector2IjEcvNS0_IT_EEIfEEv, symObjAddr: 0x60C, symBinAddr: 0x100001E84, symSize: 0x40 }
  - { offset: 0x1C0C7, size: 0x8, addend: 0x0, symName: __ZN2sf4RectIfEC1ENS_7Vector2IfEES3_, symObjAddr: 0x64C, symBinAddr: 0x100001EC4, symSize: 0x4C }
  - { offset: 0x1C119, size: 0x8, addend: 0x0, symName: __ZNK2sf5Event5getIfINS0_10KeyPressedEEEPKT_v, symObjAddr: 0x698, symBinAddr: 0x100001F10, symSize: 0x24 }
  - { offset: 0x1C152, size: 0x8, addend: 0x0, symName: __ZNK2sf5Event5getIfINS0_18MouseButtonPressedEEEPKT_v, symObjAddr: 0x6BC, symBinAddr: 0x100001F34, symSize: 0x24 }
  - { offset: 0x1C18B, size: 0x8, addend: 0x0, symName: __ZNK2sf5Event5getIfINS0_10MouseMovedEEEPKT_v, symObjAddr: 0x6E0, symBinAddr: 0x100001F58, symSize: 0x24 }
  - { offset: 0x1C1BA, size: 0x8, addend: 0x0, symName: __ZN2sf5ColorC1Ehhhh, symObjAddr: 0x704, symBinAddr: 0x100001F7C, symSize: 0x4C }
  - { offset: 0x1C21E, size: 0x8, addend: 0x0, symName: __ZN2sf15ContextSettingsC2Ev, symObjAddr: 0x750, symBinAddr: 0x100001FC8, symSize: 0x34 }
  - { offset: 0x1C24A, size: 0x8, addend: 0x0, symName: __ZN2sf7Vector2IjEC2Ejj, symObjAddr: 0x784, symBinAddr: 0x100001FFC, symSize: 0x2C }
  - { offset: 0x1C292, size: 0x8, addend: 0x0, symName: __ZN2sf6StringD2Ev, symObjAddr: 0x7B0, symBinAddr: 0x100002028, symSize: 0x2C }
  - { offset: 0x1C2BE, size: 0x8, addend: 0x0, symName: __ZNSt3__112basic_stringIDiNS_11char_traitsIDiEENS_9allocatorIDiEEED1Ev, symObjAddr: 0x7DC, symBinAddr: 0x100002054, symSize: 0x2C }
  - { offset: 0x1C2E8, size: 0x8, addend: 0x0, symName: __ZNSt3__112basic_stringIDiNS_11char_traitsIDiEENS_9allocatorIDiEEED2Ev, symObjAddr: 0x808, symBinAddr: 0x100002080, symSize: 0x7C }
  - { offset: 0x1C312, size: 0x8, addend: 0x0, symName: __ZNKSt3__112basic_stringIDiNS_11char_traitsIDiEENS_9allocatorIDiEEE17__annotate_deleteB8ne180100Ev, symObjAddr: 0x884, symBinAddr: 0x1000020FC, symSize: 0x10 }
  - { offset: 0x1C338, size: 0x8, addend: 0x0, symName: __ZNKSt3__112basic_stringIDiNS_11char_traitsIDiEENS_9allocatorIDiEEE9__is_longB8ne180100Ev, symObjAddr: 0x894, symBinAddr: 0x10000210C, symSize: 0x38 }
  - { offset: 0x1C35E, size: 0x8, addend: 0x0, symName: __ZNSt3__116allocator_traitsINS_9allocatorIDiEEE10deallocateB8ne180100ERS2_PDim, symObjAddr: 0x8CC, symBinAddr: 0x100002144, symSize: 0x34 }
  - { offset: 0x1C3A0, size: 0x8, addend: 0x0, symName: __ZNSt3__112basic_stringIDiNS_11char_traitsIDiEENS_9allocatorIDiEEE7__allocB8ne180100Ev, symObjAddr: 0x900, symBinAddr: 0x100002178, symSize: 0x24 }
  - { offset: 0x1C3C6, size: 0x8, addend: 0x0, symName: __ZNSt3__112basic_stringIDiNS_11char_traitsIDiEENS_9allocatorIDiEEE18__get_long_pointerB8ne180100Ev, symObjAddr: 0x924, symBinAddr: 0x10000219C, symSize: 0x28 }
  - { offset: 0x1C3EC, size: 0x8, addend: 0x0, symName: __ZNKSt3__112basic_stringIDiNS_11char_traitsIDiEENS_9allocatorIDiEEE14__get_long_capB8ne180100Ev, symObjAddr: 0x94C, symBinAddr: 0x1000021C4, symSize: 0x30 }
  - { offset: 0x1C412, size: 0x8, addend: 0x0, symName: __ZNKSt3__117__compressed_pairINS_12basic_stringIDiNS_11char_traitsIDiEENS_9allocatorIDiEEE5__repES5_E5firstB8ne180100Ev, symObjAddr: 0x97C, symBinAddr: 0x1000021F4, symSize: 0x24 }
  - { offset: 0x1C438, size: 0x8, addend: 0x0, symName: __ZNKSt3__122__compressed_pair_elemINS_12basic_stringIDiNS_11char_traitsIDiEENS_9allocatorIDiEEE5__repELi0ELb0EE5__getB8ne180100Ev, symObjAddr: 0x9A0, symBinAddr: 0x100002218, symSize: 0x14 }
  - { offset: 0x1C45E, size: 0x8, addend: 0x0, symName: __ZNSt3__19allocatorIDiE10deallocateB8ne180100EPDim, symObjAddr: 0x9B4, symBinAddr: 0x10000222C, symSize: 0x40 }
  - { offset: 0x1C4A0, size: 0x8, addend: 0x0, symName: __ZNSt3__117__compressed_pairINS_12basic_stringIDiNS_11char_traitsIDiEENS_9allocatorIDiEEE5__repES5_E6secondB8ne180100Ev, symObjAddr: 0xB2C, symBinAddr: 0x1000023A4, symSize: 0x24 }
  - { offset: 0x1C4C6, size: 0x8, addend: 0x0, symName: __ZNSt3__122__compressed_pair_elemINS_9allocatorIDiEELi1ELb1EE5__getB8ne180100Ev, symObjAddr: 0xB50, symBinAddr: 0x1000023C8, symSize: 0x14 }
  - { offset: 0x1C4EC, size: 0x8, addend: 0x0, symName: __ZNSt3__117__compressed_pairINS_12basic_stringIDiNS_11char_traitsIDiEENS_9allocatorIDiEEE5__repES5_E5firstB8ne180100Ev, symObjAddr: 0xB64, symBinAddr: 0x1000023DC, symSize: 0x24 }
  - { offset: 0x1C512, size: 0x8, addend: 0x0, symName: __ZNSt3__122__compressed_pair_elemINS_12basic_stringIDiNS_11char_traitsIDiEENS_9allocatorIDiEEE5__repELi0ELb0EE5__getB8ne180100Ev, symObjAddr: 0xB88, symBinAddr: 0x100002400, symSize: 0x14 }
  - { offset: 0x1C538, size: 0x8, addend: 0x0, symName: __ZN2sf5ClockC2Ev, symObjAddr: 0xB9C, symBinAddr: 0x100002414, symSize: 0x3C }
  - { offset: 0x1C564, size: 0x8, addend: 0x0, symName: __ZNSt3__16chrono10time_pointINS0_12steady_clockENS0_8durationIxNS_5ratioILl1ELl1000000000EEEEEEC1B8ne180100Ev, symObjAddr: 0xBD8, symBinAddr: 0x100002450, symSize: 0x2C }
  - { offset: 0x1C58E, size: 0x8, addend: 0x0, symName: __ZNSt3__16chrono10time_pointINS0_12steady_clockENS0_8durationIxNS_5ratioILl1ELl1000000000EEEEEEC2B8ne180100Ev, symObjAddr: 0xC04, symBinAddr: 0x10000247C, symSize: 0x34 }
  - { offset: 0x1C5B8, size: 0x8, addend: 0x0, symName: __ZNSt3__16chrono8durationIxNS_5ratioILl1ELl1000000000EEEE4zeroB8ne180100Ev, symObjAddr: 0xC38, symBinAddr: 0x1000024B0, symSize: 0x38 }
  - { offset: 0x1C5CC, size: 0x8, addend: 0x0, symName: __ZNSt3__16chrono15duration_valuesIxE4zeroB8ne180100Ev, symObjAddr: 0xC70, symBinAddr: 0x1000024E8, symSize: 0x8 }
  - { offset: 0x1C5EB, size: 0x8, addend: 0x0, symName: __ZNSt3__16chrono8durationIxNS_5ratioILl1ELl1000000000EEEEC1B8ne180100IxLi0EEERKT_, symObjAddr: 0xC78, symBinAddr: 0x1000024F0, symSize: 0x34 }
  - { offset: 0x1C632, size: 0x8, addend: 0x0, symName: __ZNSt3__16chrono8durationIxNS_5ratioILl1ELl1000000000EEEEC2B8ne180100IxLi0EEERKT_, symObjAddr: 0xCAC, symBinAddr: 0x100002524, symSize: 0x24 }
  - { offset: 0x1C679, size: 0x8, addend: 0x0, symName: __ZNSt3__16chrono8durationIfNS_5ratioILl1ELl1EEEEC1B8ne180100IxNS2_ILl1ELl1000000EEELi0EEERKNS1_IT_T0_EE, symObjAddr: 0xCD0, symBinAddr: 0x100002548, symSize: 0x34 }
  - { offset: 0x1C6C9, size: 0x8, addend: 0x0, symName: __ZNKSt3__16chrono8durationIfNS_5ratioILl1ELl1EEEE5countB8ne180100Ev, symObjAddr: 0xD04, symBinAddr: 0x10000257C, symSize: 0x18 }
  - { offset: 0x1C6EF, size: 0x8, addend: 0x0, symName: __ZNSt3__16chrono8durationIfNS_5ratioILl1ELl1EEEEC2B8ne180100IxNS2_ILl1ELl1000000EEELi0EEERKNS1_IT_T0_EE, symObjAddr: 0xD1C, symBinAddr: 0x100002594, symSize: 0x44 }
  - { offset: 0x1C73F, size: 0x8, addend: 0x0, symName: __ZNKSt3__16chrono8durationIxNS_5ratioILl1ELl1000000EEEE5countB8ne180100Ev, symObjAddr: 0xDE0, symBinAddr: 0x100002658, symSize: 0x18 }
  - { offset: 0x1C765, size: 0x8, addend: 0x0, symName: __ZNSt3__16chrono8durationIfNS_5ratioILl1ELl1EEEEC1B8ne180100IfLi0EEERKT_, symObjAddr: 0xDF8, symBinAddr: 0x100002670, symSize: 0x34 }
  - { offset: 0x1C7AC, size: 0x8, addend: 0x0, symName: __ZNSt3__16chrono8durationIfNS_5ratioILl1ELl1EEEEC2B8ne180100IfLi0EEERKT_, symObjAddr: 0xE2C, symBinAddr: 0x1000026A4, symSize: 0x24 }
  - { offset: 0x1C7F3, size: 0x8, addend: 0x0, symName: __ZNKSt3__123__optional_storage_baseIN2sf5EventELb0EE9has_valueB8ne180100Ev, symObjAddr: 0xE50, symBinAddr: 0x1000026C8, symSize: 0x1C }
  - { offset: 0x1C819, size: 0x8, addend: 0x0, symName: __ZNKRSt3__123__optional_storage_baseIN2sf5EventELb0EE5__getB8ne180100Ev, symObjAddr: 0xE6C, symBinAddr: 0x1000026E4, symSize: 0x14 }
  - { offset: 0x1C83F, size: 0x8, addend: 0x0, symName: __ZN2sf7Vector2IfEC2Eff, symObjAddr: 0xE80, symBinAddr: 0x1000026F8, symSize: 0x2C }
  - { offset: 0x1C887, size: 0x8, addend: 0x0, symName: __ZN2sf4RectIfEC2ENS_7Vector2IfEES3_, symObjAddr: 0xEAC, symBinAddr: 0x100002724, symSize: 0x34 }
  - { offset: 0x1C8CF, size: 0x8, addend: 0x0, symName: __ZN2sf5ColorC2Ehhhh, symObjAddr: 0xEE0, symBinAddr: 0x100002758, symSize: 0x44 }
  - { offset: 0x1C933, size: 0x8, addend: 0x0, symName: __ZNKSt3__17variantIJN2sf5Event6ClosedENS2_7ResizedENS2_9FocusLostENS2_11FocusGainedENS2_11TextEnteredENS2_10KeyPressedENS2_11KeyReleasedENS2_18MouseWheelScrolledENS2_18MouseButtonPressedENS2_19MouseButtonReleasedENS2_10MouseMovedENS2_13MouseMovedRawENS2_12MouseEnteredENS2_9MouseLeftENS2_21JoystickButtonPressedENS2_22JoystickButtonReleasedENS2_13JoystickMovedENS2_17JoystickConnectedENS2_20JoystickDisconnectedENS2_10TouchBeganENS2_10TouchMovedENS2_10TouchEndedENS2_13SensorChangedEEE5indexB8ne180100Ev, symObjAddr: 0xF7C, symBinAddr: 0x1000027F4, symSize: 0x24 }
  - { offset: 0x1C959, size: 0x8, addend: 0x0, symName: __ZNKSt3__116__variant_detail6__baseILNS0_6_TraitE0EJN2sf5Event6ClosedENS4_7ResizedENS4_9FocusLostENS4_11FocusGainedENS4_11TextEnteredENS4_10KeyPressedENS4_11KeyReleasedENS4_18MouseWheelScrolledENS4_18MouseButtonPressedENS4_19MouseButtonReleasedENS4_10MouseMovedENS4_13MouseMovedRawENS4_12MouseEnteredENS4_9MouseLeftENS4_21JoystickButtonPressedENS4_22JoystickButtonReleasedENS4_13JoystickMovedENS4_17JoystickConnectedENS4_20JoystickDisconnectedENS4_10TouchBeganENS4_10TouchMovedENS4_10TouchEndedENS4_13SensorChangedEEE5indexB8ne180100Ev, symObjAddr: 0xFA0, symBinAddr: 0x100002818, symSize: 0x4C }
  - { offset: 0x1C98A, size: 0x8, addend: 0x0, symName: __ZNSt3__116__variant_detail8__access9__variant9__get_altB8ne180100ILm5ERKNS_7variantIJN2sf5Event6ClosedENS6_7ResizedENS6_9FocusLostENS6_11FocusGainedENS6_11TextEnteredENS6_10KeyPressedENS6_11KeyReleasedENS6_18MouseWheelScrolledENS6_18MouseButtonPressedENS6_19MouseButtonReleasedENS6_10MouseMovedENS6_13MouseMovedRawENS6_12MouseEnteredENS6_9MouseLeftENS6_21JoystickButtonPressedENS6_22JoystickButtonReleasedENS6_13JoystickMovedENS6_17JoystickConnectedENS6_20JoystickDisconnectedENS6_10TouchBeganENS6_10TouchMovedENS6_10TouchEndedENS6_13SensorChangedEEEEEEODaOT0_, symObjAddr: 0x112C, symBinAddr: 0x1000029A4, symSize: 0x24 }
  - { offset: 0x1C9C1, size: 0x8, addend: 0x0, symName: __ZNSt3__116__variant_detail8__access6__base9__get_altB8ne180100ILm5ERKNS0_6__implIJN2sf5Event6ClosedENS6_7ResizedENS6_9FocusLostENS6_11FocusGainedENS6_11TextEnteredENS6_10KeyPressedENS6_11KeyReleasedENS6_18MouseWheelScrolledENS6_18MouseButtonPressedENS6_19MouseButtonReleasedENS6_10MouseMovedENS6_13MouseMovedRawENS6_12MouseEnteredENS6_9MouseLeftENS6_21JoystickButtonPressedENS6_22JoystickButtonReleasedENS6_13JoystickMovedENS6_17JoystickConnectedENS6_20JoystickDisconnectedENS6_10TouchBeganENS6_10TouchMovedENS6_10TouchEndedENS6_13SensorChangedEEEEEEODaOT0_, symObjAddr: 0x1150, symBinAddr: 0x1000029C8, symSize: 0x24 }
  - { offset: 0x1C9F8, size: 0x8, addend: 0x0, symName: __ZNSt3__116__variant_detail8__access7__union9__get_altB8ne180100IRKNS0_7__unionILNS0_6_TraitE0ELm0EJN2sf5Event6ClosedENS7_7ResizedENS7_9FocusLostENS7_11FocusGainedENS7_11TextEnteredENS7_10KeyPressedENS7_11KeyReleasedENS7_18MouseWheelScrolledENS7_18MouseButtonPressedENS7_19MouseButtonReleasedENS7_10MouseMovedENS7_13MouseMovedRawENS7_12MouseEnteredENS7_9MouseLeftENS7_21JoystickButtonPressedENS7_22JoystickButtonReleasedENS7_13JoystickMovedENS7_17JoystickConnectedENS7_20JoystickDisconnectedENS7_10TouchBeganENS7_10TouchMovedENS7_10TouchEndedENS7_13SensorChangedEEEELm5EEEODaOT_NS_16in_place_index_tIXT0_EEE, symObjAddr: 0x1174, symBinAddr: 0x1000029EC, symSize: 0x24 }
  - { offset: 0x1CA3B, size: 0x8, addend: 0x0, symName: __ZNSt3__116__variant_detail8__access7__union9__get_altB8ne180100IRKNS0_7__unionILNS0_6_TraitE0ELm1EJN2sf5Event7ResizedENS7_9FocusLostENS7_11FocusGainedENS7_11TextEnteredENS7_10KeyPressedENS7_11KeyReleasedENS7_18MouseWheelScrolledENS7_18MouseButtonPressedENS7_19MouseButtonReleasedENS7_10MouseMovedENS7_13MouseMovedRawENS7_12MouseEnteredENS7_9MouseLeftENS7_21JoystickButtonPressedENS7_22JoystickButtonReleasedENS7_13JoystickMovedENS7_17JoystickConnectedENS7_20JoystickDisconnectedENS7_10TouchBeganENS7_10TouchMovedENS7_10TouchEndedENS7_13SensorChangedEEEELm4EEEODaOT_NS_16in_place_index_tIXT0_EEE, symObjAddr: 0x1198, symBinAddr: 0x100002A10, symSize: 0x24 }
  - { offset: 0x1CA7E, size: 0x8, addend: 0x0, symName: __ZNSt3__116__variant_detail8__access7__union9__get_altB8ne180100IRKNS0_7__unionILNS0_6_TraitE0ELm2EJN2sf5Event9FocusLostENS7_11FocusGainedENS7_11TextEnteredENS7_10KeyPressedENS7_11KeyReleasedENS7_18MouseWheelScrolledENS7_18MouseButtonPressedENS7_19MouseButtonReleasedENS7_10MouseMovedENS7_13MouseMovedRawENS7_12MouseEnteredENS7_9MouseLeftENS7_21JoystickButtonPressedENS7_22JoystickButtonReleasedENS7_13JoystickMovedENS7_17JoystickConnectedENS7_20JoystickDisconnectedENS7_10TouchBeganENS7_10TouchMovedENS7_10TouchEndedENS7_13SensorChangedEEEELm3EEEODaOT_NS_16in_place_index_tIXT0_EEE, symObjAddr: 0x11BC, symBinAddr: 0x100002A34, symSize: 0x24 }
  - { offset: 0x1CAC1, size: 0x8, addend: 0x0, symName: __ZNSt3__116__variant_detail8__access7__union9__get_altB8ne180100IRKNS0_7__unionILNS0_6_TraitE0ELm3EJN2sf5Event11FocusGainedENS7_11TextEnteredENS7_10KeyPressedENS7_11KeyReleasedENS7_18MouseWheelScrolledENS7_18MouseButtonPressedENS7_19MouseButtonReleasedENS7_10MouseMovedENS7_13MouseMovedRawENS7_12MouseEnteredENS7_9MouseLeftENS7_21JoystickButtonPressedENS7_22JoystickButtonReleasedENS7_13JoystickMovedENS7_17JoystickConnectedENS7_20JoystickDisconnectedENS7_10TouchBeganENS7_10TouchMovedENS7_10TouchEndedENS7_13SensorChangedEEEELm2EEEODaOT_NS_16in_place_index_tIXT0_EEE, symObjAddr: 0x11E0, symBinAddr: 0x100002A58, symSize: 0x24 }
  - { offset: 0x1CB04, size: 0x8, addend: 0x0, symName: __ZNSt3__116__variant_detail8__access7__union9__get_altB8ne180100IRKNS0_7__unionILNS0_6_TraitE0ELm4EJN2sf5Event11TextEnteredENS7_10KeyPressedENS7_11KeyReleasedENS7_18MouseWheelScrolledENS7_18MouseButtonPressedENS7_19MouseButtonReleasedENS7_10MouseMovedENS7_13MouseMovedRawENS7_12MouseEnteredENS7_9MouseLeftENS7_21JoystickButtonPressedENS7_22JoystickButtonReleasedENS7_13JoystickMovedENS7_17JoystickConnectedENS7_20JoystickDisconnectedENS7_10TouchBeganENS7_10TouchMovedENS7_10TouchEndedENS7_13SensorChangedEEEELm1EEEODaOT_NS_16in_place_index_tIXT0_EEE, symObjAddr: 0x1204, symBinAddr: 0x100002A7C, symSize: 0x24 }
  - { offset: 0x1CB47, size: 0x8, addend: 0x0, symName: __ZNSt3__116__variant_detail8__access7__union9__get_altB8ne180100IRKNS0_7__unionILNS0_6_TraitE0ELm5EJN2sf5Event10KeyPressedENS7_11KeyReleasedENS7_18MouseWheelScrolledENS7_18MouseButtonPressedENS7_19MouseButtonReleasedENS7_10MouseMovedENS7_13MouseMovedRawENS7_12MouseEnteredENS7_9MouseLeftENS7_21JoystickButtonPressedENS7_22JoystickButtonReleasedENS7_13JoystickMovedENS7_17JoystickConnectedENS7_20JoystickDisconnectedENS7_10TouchBeganENS7_10TouchMovedENS7_10TouchEndedENS7_13SensorChangedEEEEEEODaOT_NS_16in_place_index_tILm0EEE, symObjAddr: 0x1228, symBinAddr: 0x100002AA0, symSize: 0x14 }
  - { offset: 0x1CB8B, size: 0x8, addend: 0x0, symName: __ZNSt3__116__variant_detail8__access9__variant9__get_altB8ne180100ILm8ERKNS_7variantIJN2sf5Event6ClosedENS6_7ResizedENS6_9FocusLostENS6_11FocusGainedENS6_11TextEnteredENS6_10KeyPressedENS6_11KeyReleasedENS6_18MouseWheelScrolledENS6_18MouseButtonPressedENS6_19MouseButtonReleasedENS6_10MouseMovedENS6_13MouseMovedRawENS6_12MouseEnteredENS6_9MouseLeftENS6_21JoystickButtonPressedENS6_22JoystickButtonReleasedENS6_13JoystickMovedENS6_17JoystickConnectedENS6_20JoystickDisconnectedENS6_10TouchBeganENS6_10TouchMovedENS6_10TouchEndedENS6_13SensorChangedEEEEEEODaOT0_, symObjAddr: 0x1324, symBinAddr: 0x100002B9C, symSize: 0x24 }
  - { offset: 0x1CBC2, size: 0x8, addend: 0x0, symName: __ZNSt3__116__variant_detail8__access6__base9__get_altB8ne180100ILm8ERKNS0_6__implIJN2sf5Event6ClosedENS6_7ResizedENS6_9FocusLostENS6_11FocusGainedENS6_11TextEnteredENS6_10KeyPressedENS6_11KeyReleasedENS6_18MouseWheelScrolledENS6_18MouseButtonPressedENS6_19MouseButtonReleasedENS6_10MouseMovedENS6_13MouseMovedRawENS6_12MouseEnteredENS6_9MouseLeftENS6_21JoystickButtonPressedENS6_22JoystickButtonReleasedENS6_13JoystickMovedENS6_17JoystickConnectedENS6_20JoystickDisconnectedENS6_10TouchBeganENS6_10TouchMovedENS6_10TouchEndedENS6_13SensorChangedEEEEEEODaOT0_, symObjAddr: 0x1348, symBinAddr: 0x100002BC0, symSize: 0x24 }
  - { offset: 0x1CBF9, size: 0x8, addend: 0x0, symName: __ZNSt3__116__variant_detail8__access7__union9__get_altB8ne180100IRKNS0_7__unionILNS0_6_TraitE0ELm0EJN2sf5Event6ClosedENS7_7ResizedENS7_9FocusLostENS7_11FocusGainedENS7_11TextEnteredENS7_10KeyPressedENS7_11KeyReleasedENS7_18MouseWheelScrolledENS7_18MouseButtonPressedENS7_19MouseButtonReleasedENS7_10MouseMovedENS7_13MouseMovedRawENS7_12MouseEnteredENS7_9MouseLeftENS7_21JoystickButtonPressedENS7_22JoystickButtonReleasedENS7_13JoystickMovedENS7_17JoystickConnectedENS7_20JoystickDisconnectedENS7_10TouchBeganENS7_10TouchMovedENS7_10TouchEndedENS7_13SensorChangedEEEELm8EEEODaOT_NS_16in_place_index_tIXT0_EEE, symObjAddr: 0x136C, symBinAddr: 0x100002BE4, symSize: 0x24 }
  - { offset: 0x1CC3C, size: 0x8, addend: 0x0, symName: __ZNSt3__116__variant_detail8__access7__union9__get_altB8ne180100IRKNS0_7__unionILNS0_6_TraitE0ELm1EJN2sf5Event7ResizedENS7_9FocusLostENS7_11FocusGainedENS7_11TextEnteredENS7_10KeyPressedENS7_11KeyReleasedENS7_18MouseWheelScrolledENS7_18MouseButtonPressedENS7_19MouseButtonReleasedENS7_10MouseMovedENS7_13MouseMovedRawENS7_12MouseEnteredENS7_9MouseLeftENS7_21JoystickButtonPressedENS7_22JoystickButtonReleasedENS7_13JoystickMovedENS7_17JoystickConnectedENS7_20JoystickDisconnectedENS7_10TouchBeganENS7_10TouchMovedENS7_10TouchEndedENS7_13SensorChangedEEEELm7EEEODaOT_NS_16in_place_index_tIXT0_EEE, symObjAddr: 0x1390, symBinAddr: 0x100002C08, symSize: 0x24 }
  - { offset: 0x1CC7F, size: 0x8, addend: 0x0, symName: __ZNSt3__116__variant_detail8__access7__union9__get_altB8ne180100IRKNS0_7__unionILNS0_6_TraitE0ELm2EJN2sf5Event9FocusLostENS7_11FocusGainedENS7_11TextEnteredENS7_10KeyPressedENS7_11KeyReleasedENS7_18MouseWheelScrolledENS7_18MouseButtonPressedENS7_19MouseButtonReleasedENS7_10MouseMovedENS7_13MouseMovedRawENS7_12MouseEnteredENS7_9MouseLeftENS7_21JoystickButtonPressedENS7_22JoystickButtonReleasedENS7_13JoystickMovedENS7_17JoystickConnectedENS7_20JoystickDisconnectedENS7_10TouchBeganENS7_10TouchMovedENS7_10TouchEndedENS7_13SensorChangedEEEELm6EEEODaOT_NS_16in_place_index_tIXT0_EEE, symObjAddr: 0x13B4, symBinAddr: 0x100002C2C, symSize: 0x24 }
  - { offset: 0x1CCC2, size: 0x8, addend: 0x0, symName: __ZNSt3__116__variant_detail8__access7__union9__get_altB8ne180100IRKNS0_7__unionILNS0_6_TraitE0ELm3EJN2sf5Event11FocusGainedENS7_11TextEnteredENS7_10KeyPressedENS7_11KeyReleasedENS7_18MouseWheelScrolledENS7_18MouseButtonPressedENS7_19MouseButtonReleasedENS7_10MouseMovedENS7_13MouseMovedRawENS7_12MouseEnteredENS7_9MouseLeftENS7_21JoystickButtonPressedENS7_22JoystickButtonReleasedENS7_13JoystickMovedENS7_17JoystickConnectedENS7_20JoystickDisconnectedENS7_10TouchBeganENS7_10TouchMovedENS7_10TouchEndedENS7_13SensorChangedEEEELm5EEEODaOT_NS_16in_place_index_tIXT0_EEE, symObjAddr: 0x13D8, symBinAddr: 0x100002C50, symSize: 0x24 }
  - { offset: 0x1CD05, size: 0x8, addend: 0x0, symName: __ZNSt3__116__variant_detail8__access7__union9__get_altB8ne180100IRKNS0_7__unionILNS0_6_TraitE0ELm4EJN2sf5Event11TextEnteredENS7_10KeyPressedENS7_11KeyReleasedENS7_18MouseWheelScrolledENS7_18MouseButtonPressedENS7_19MouseButtonReleasedENS7_10MouseMovedENS7_13MouseMovedRawENS7_12MouseEnteredENS7_9MouseLeftENS7_21JoystickButtonPressedENS7_22JoystickButtonReleasedENS7_13JoystickMovedENS7_17JoystickConnectedENS7_20JoystickDisconnectedENS7_10TouchBeganENS7_10TouchMovedENS7_10TouchEndedENS7_13SensorChangedEEEELm4EEEODaOT_NS_16in_place_index_tIXT0_EEE, symObjAddr: 0x13FC, symBinAddr: 0x100002C74, symSize: 0x24 }
  - { offset: 0x1CD48, size: 0x8, addend: 0x0, symName: __ZNSt3__116__variant_detail8__access7__union9__get_altB8ne180100IRKNS0_7__unionILNS0_6_TraitE0ELm5EJN2sf5Event10KeyPressedENS7_11KeyReleasedENS7_18MouseWheelScrolledENS7_18MouseButtonPressedENS7_19MouseButtonReleasedENS7_10MouseMovedENS7_13MouseMovedRawENS7_12MouseEnteredENS7_9MouseLeftENS7_21JoystickButtonPressedENS7_22JoystickButtonReleasedENS7_13JoystickMovedENS7_17JoystickConnectedENS7_20JoystickDisconnectedENS7_10TouchBeganENS7_10TouchMovedENS7_10TouchEndedENS7_13SensorChangedEEEELm3EEEODaOT_NS_16in_place_index_tIXT0_EEE, symObjAddr: 0x1420, symBinAddr: 0x100002C98, symSize: 0x24 }
  - { offset: 0x1CD8B, size: 0x8, addend: 0x0, symName: __ZNSt3__116__variant_detail8__access7__union9__get_altB8ne180100IRKNS0_7__unionILNS0_6_TraitE0ELm6EJN2sf5Event11KeyReleasedENS7_18MouseWheelScrolledENS7_18MouseButtonPressedENS7_19MouseButtonReleasedENS7_10MouseMovedENS7_13MouseMovedRawENS7_12MouseEnteredENS7_9MouseLeftENS7_21JoystickButtonPressedENS7_22JoystickButtonReleasedENS7_13JoystickMovedENS7_17JoystickConnectedENS7_20JoystickDisconnectedENS7_10TouchBeganENS7_10TouchMovedENS7_10TouchEndedENS7_13SensorChangedEEEELm2EEEODaOT_NS_16in_place_index_tIXT0_EEE, symObjAddr: 0x1444, symBinAddr: 0x100002CBC, symSize: 0x24 }
  - { offset: 0x1CDCE, size: 0x8, addend: 0x0, symName: __ZNSt3__116__variant_detail8__access7__union9__get_altB8ne180100IRKNS0_7__unionILNS0_6_TraitE0ELm7EJN2sf5Event18MouseWheelScrolledENS7_18MouseButtonPressedENS7_19MouseButtonReleasedENS7_10MouseMovedENS7_13MouseMovedRawENS7_12MouseEnteredENS7_9MouseLeftENS7_21JoystickButtonPressedENS7_22JoystickButtonReleasedENS7_13JoystickMovedENS7_17JoystickConnectedENS7_20JoystickDisconnectedENS7_10TouchBeganENS7_10TouchMovedENS7_10TouchEndedENS7_13SensorChangedEEEELm1EEEODaOT_NS_16in_place_index_tIXT0_EEE, symObjAddr: 0x1468, symBinAddr: 0x100002CE0, symSize: 0x24 }
  - { offset: 0x1CE11, size: 0x8, addend: 0x0, symName: __ZNSt3__116__variant_detail8__access7__union9__get_altB8ne180100IRKNS0_7__unionILNS0_6_TraitE0ELm8EJN2sf5Event18MouseButtonPressedENS7_19MouseButtonReleasedENS7_10MouseMovedENS7_13MouseMovedRawENS7_12MouseEnteredENS7_9MouseLeftENS7_21JoystickButtonPressedENS7_22JoystickButtonReleasedENS7_13JoystickMovedENS7_17JoystickConnectedENS7_20JoystickDisconnectedENS7_10TouchBeganENS7_10TouchMovedENS7_10TouchEndedENS7_13SensorChangedEEEEEEODaOT_NS_16in_place_index_tILm0EEE, symObjAddr: 0x148C, symBinAddr: 0x100002D04, symSize: 0x14 }
  - { offset: 0x1CE55, size: 0x8, addend: 0x0, symName: __ZNSt3__116__variant_detail8__access9__variant9__get_altB8ne180100ILm10ERKNS_7variantIJN2sf5Event6ClosedENS6_7ResizedENS6_9FocusLostENS6_11FocusGainedENS6_11TextEnteredENS6_10KeyPressedENS6_11KeyReleasedENS6_18MouseWheelScrolledENS6_18MouseButtonPressedENS6_19MouseButtonReleasedENS6_10MouseMovedENS6_13MouseMovedRawENS6_12MouseEnteredENS6_9MouseLeftENS6_21JoystickButtonPressedENS6_22JoystickButtonReleasedENS6_13JoystickMovedENS6_17JoystickConnectedENS6_20JoystickDisconnectedENS6_10TouchBeganENS6_10TouchMovedENS6_10TouchEndedENS6_13SensorChangedEEEEEEODaOT0_, symObjAddr: 0x1588, symBinAddr: 0x100002E00, symSize: 0x24 }
  - { offset: 0x1CE8C, size: 0x8, addend: 0x0, symName: __ZNSt3__116__variant_detail8__access6__base9__get_altB8ne180100ILm10ERKNS0_6__implIJN2sf5Event6ClosedENS6_7ResizedENS6_9FocusLostENS6_11FocusGainedENS6_11TextEnteredENS6_10KeyPressedENS6_11KeyReleasedENS6_18MouseWheelScrolledENS6_18MouseButtonPressedENS6_19MouseButtonReleasedENS6_10MouseMovedENS6_13MouseMovedRawENS6_12MouseEnteredENS6_9MouseLeftENS6_21JoystickButtonPressedENS6_22JoystickButtonReleasedENS6_13JoystickMovedENS6_17JoystickConnectedENS6_20JoystickDisconnectedENS6_10TouchBeganENS6_10TouchMovedENS6_10TouchEndedENS6_13SensorChangedEEEEEEODaOT0_, symObjAddr: 0x15AC, symBinAddr: 0x100002E24, symSize: 0x24 }
  - { offset: 0x1CEC3, size: 0x8, addend: 0x0, symName: __ZNSt3__116__variant_detail8__access7__union9__get_altB8ne180100IRKNS0_7__unionILNS0_6_TraitE0ELm0EJN2sf5Event6ClosedENS7_7ResizedENS7_9FocusLostENS7_11FocusGainedENS7_11TextEnteredENS7_10KeyPressedENS7_11KeyReleasedENS7_18MouseWheelScrolledENS7_18MouseButtonPressedENS7_19MouseButtonReleasedENS7_10MouseMovedENS7_13MouseMovedRawENS7_12MouseEnteredENS7_9MouseLeftENS7_21JoystickButtonPressedENS7_22JoystickButtonReleasedENS7_13JoystickMovedENS7_17JoystickConnectedENS7_20JoystickDisconnectedENS7_10TouchBeganENS7_10TouchMovedENS7_10TouchEndedENS7_13SensorChangedEEEELm10EEEODaOT_NS_16in_place_index_tIXT0_EEE, symObjAddr: 0x15D0, symBinAddr: 0x100002E48, symSize: 0x24 }
  - { offset: 0x1CF06, size: 0x8, addend: 0x0, symName: __ZNSt3__116__variant_detail8__access7__union9__get_altB8ne180100IRKNS0_7__unionILNS0_6_TraitE0ELm1EJN2sf5Event7ResizedENS7_9FocusLostENS7_11FocusGainedENS7_11TextEnteredENS7_10KeyPressedENS7_11KeyReleasedENS7_18MouseWheelScrolledENS7_18MouseButtonPressedENS7_19MouseButtonReleasedENS7_10MouseMovedENS7_13MouseMovedRawENS7_12MouseEnteredENS7_9MouseLeftENS7_21JoystickButtonPressedENS7_22JoystickButtonReleasedENS7_13JoystickMovedENS7_17JoystickConnectedENS7_20JoystickDisconnectedENS7_10TouchBeganENS7_10TouchMovedENS7_10TouchEndedENS7_13SensorChangedEEEELm9EEEODaOT_NS_16in_place_index_tIXT0_EEE, symObjAddr: 0x15F4, symBinAddr: 0x100002E6C, symSize: 0x24 }
  - { offset: 0x1CF49, size: 0x8, addend: 0x0, symName: __ZNSt3__116__variant_detail8__access7__union9__get_altB8ne180100IRKNS0_7__unionILNS0_6_TraitE0ELm2EJN2sf5Event9FocusLostENS7_11FocusGainedENS7_11TextEnteredENS7_10KeyPressedENS7_11KeyReleasedENS7_18MouseWheelScrolledENS7_18MouseButtonPressedENS7_19MouseButtonReleasedENS7_10MouseMovedENS7_13MouseMovedRawENS7_12MouseEnteredENS7_9MouseLeftENS7_21JoystickButtonPressedENS7_22JoystickButtonReleasedENS7_13JoystickMovedENS7_17JoystickConnectedENS7_20JoystickDisconnectedENS7_10TouchBeganENS7_10TouchMovedENS7_10TouchEndedENS7_13SensorChangedEEEELm8EEEODaOT_NS_16in_place_index_tIXT0_EEE, symObjAddr: 0x1618, symBinAddr: 0x100002E90, symSize: 0x24 }
  - { offset: 0x1CF8C, size: 0x8, addend: 0x0, symName: __ZNSt3__116__variant_detail8__access7__union9__get_altB8ne180100IRKNS0_7__unionILNS0_6_TraitE0ELm3EJN2sf5Event11FocusGainedENS7_11TextEnteredENS7_10KeyPressedENS7_11KeyReleasedENS7_18MouseWheelScrolledENS7_18MouseButtonPressedENS7_19MouseButtonReleasedENS7_10MouseMovedENS7_13MouseMovedRawENS7_12MouseEnteredENS7_9MouseLeftENS7_21JoystickButtonPressedENS7_22JoystickButtonReleasedENS7_13JoystickMovedENS7_17JoystickConnectedENS7_20JoystickDisconnectedENS7_10TouchBeganENS7_10TouchMovedENS7_10TouchEndedENS7_13SensorChangedEEEELm7EEEODaOT_NS_16in_place_index_tIXT0_EEE, symObjAddr: 0x163C, symBinAddr: 0x100002EB4, symSize: 0x24 }
  - { offset: 0x1CFCF, size: 0x8, addend: 0x0, symName: __ZNSt3__116__variant_detail8__access7__union9__get_altB8ne180100IRKNS0_7__unionILNS0_6_TraitE0ELm4EJN2sf5Event11TextEnteredENS7_10KeyPressedENS7_11KeyReleasedENS7_18MouseWheelScrolledENS7_18MouseButtonPressedENS7_19MouseButtonReleasedENS7_10MouseMovedENS7_13MouseMovedRawENS7_12MouseEnteredENS7_9MouseLeftENS7_21JoystickButtonPressedENS7_22JoystickButtonReleasedENS7_13JoystickMovedENS7_17JoystickConnectedENS7_20JoystickDisconnectedENS7_10TouchBeganENS7_10TouchMovedENS7_10TouchEndedENS7_13SensorChangedEEEELm6EEEODaOT_NS_16in_place_index_tIXT0_EEE, symObjAddr: 0x1660, symBinAddr: 0x100002ED8, symSize: 0x24 }
  - { offset: 0x1D012, size: 0x8, addend: 0x0, symName: __ZNSt3__116__variant_detail8__access7__union9__get_altB8ne180100IRKNS0_7__unionILNS0_6_TraitE0ELm5EJN2sf5Event10KeyPressedENS7_11KeyReleasedENS7_18MouseWheelScrolledENS7_18MouseButtonPressedENS7_19MouseButtonReleasedENS7_10MouseMovedENS7_13MouseMovedRawENS7_12MouseEnteredENS7_9MouseLeftENS7_21JoystickButtonPressedENS7_22JoystickButtonReleasedENS7_13JoystickMovedENS7_17JoystickConnectedENS7_20JoystickDisconnectedENS7_10TouchBeganENS7_10TouchMovedENS7_10TouchEndedENS7_13SensorChangedEEEELm5EEEODaOT_NS_16in_place_index_tIXT0_EEE, symObjAddr: 0x1684, symBinAddr: 0x100002EFC, symSize: 0x24 }
  - { offset: 0x1D055, size: 0x8, addend: 0x0, symName: __ZNSt3__116__variant_detail8__access7__union9__get_altB8ne180100IRKNS0_7__unionILNS0_6_TraitE0ELm6EJN2sf5Event11KeyReleasedENS7_18MouseWheelScrolledENS7_18MouseButtonPressedENS7_19MouseButtonReleasedENS7_10MouseMovedENS7_13MouseMovedRawENS7_12MouseEnteredENS7_9MouseLeftENS7_21JoystickButtonPressedENS7_22JoystickButtonReleasedENS7_13JoystickMovedENS7_17JoystickConnectedENS7_20JoystickDisconnectedENS7_10TouchBeganENS7_10TouchMovedENS7_10TouchEndedENS7_13SensorChangedEEEELm4EEEODaOT_NS_16in_place_index_tIXT0_EEE, symObjAddr: 0x16A8, symBinAddr: 0x100002F20, symSize: 0x24 }
  - { offset: 0x1D098, size: 0x8, addend: 0x0, symName: __ZNSt3__116__variant_detail8__access7__union9__get_altB8ne180100IRKNS0_7__unionILNS0_6_TraitE0ELm7EJN2sf5Event18MouseWheelScrolledENS7_18MouseButtonPressedENS7_19MouseButtonReleasedENS7_10MouseMovedENS7_13MouseMovedRawENS7_12MouseEnteredENS7_9MouseLeftENS7_21JoystickButtonPressedENS7_22JoystickButtonReleasedENS7_13JoystickMovedENS7_17JoystickConnectedENS7_20JoystickDisconnectedENS7_10TouchBeganENS7_10TouchMovedENS7_10TouchEndedENS7_13SensorChangedEEEELm3EEEODaOT_NS_16in_place_index_tIXT0_EEE, symObjAddr: 0x16CC, symBinAddr: 0x100002F44, symSize: 0x24 }
  - { offset: 0x1D0DB, size: 0x8, addend: 0x0, symName: __ZNSt3__116__variant_detail8__access7__union9__get_altB8ne180100IRKNS0_7__unionILNS0_6_TraitE0ELm8EJN2sf5Event18MouseButtonPressedENS7_19MouseButtonReleasedENS7_10MouseMovedENS7_13MouseMovedRawENS7_12MouseEnteredENS7_9MouseLeftENS7_21JoystickButtonPressedENS7_22JoystickButtonReleasedENS7_13JoystickMovedENS7_17JoystickConnectedENS7_20JoystickDisconnectedENS7_10TouchBeganENS7_10TouchMovedENS7_10TouchEndedENS7_13SensorChangedEEEELm2EEEODaOT_NS_16in_place_index_tIXT0_EEE, symObjAddr: 0x16F0, symBinAddr: 0x100002F68, symSize: 0x24 }
  - { offset: 0x1D11E, size: 0x8, addend: 0x0, symName: __ZNSt3__116__variant_detail8__access7__union9__get_altB8ne180100IRKNS0_7__unionILNS0_6_TraitE0ELm9EJN2sf5Event19MouseButtonReleasedENS7_10MouseMovedENS7_13MouseMovedRawENS7_12MouseEnteredENS7_9MouseLeftENS7_21JoystickButtonPressedENS7_22JoystickButtonReleasedENS7_13JoystickMovedENS7_17JoystickConnectedENS7_20JoystickDisconnectedENS7_10TouchBeganENS7_10TouchMovedENS7_10TouchEndedENS7_13SensorChangedEEEELm1EEEODaOT_NS_16in_place_index_tIXT0_EEE, symObjAddr: 0x1714, symBinAddr: 0x100002F8C, symSize: 0x24 }
  - { offset: 0x1D161, size: 0x8, addend: 0x0, symName: __ZNSt3__116__variant_detail8__access7__union9__get_altB8ne180100IRKNS0_7__unionILNS0_6_TraitE0ELm10EJN2sf5Event10MouseMovedENS7_13MouseMovedRawENS7_12MouseEnteredENS7_9MouseLeftENS7_21JoystickButtonPressedENS7_22JoystickButtonReleasedENS7_13JoystickMovedENS7_17JoystickConnectedENS7_20JoystickDisconnectedENS7_10TouchBeganENS7_10TouchMovedENS7_10TouchEndedENS7_13SensorChangedEEEEEEODaOT_NS_16in_place_index_tILm0EEE, symObjAddr: 0x1738, symBinAddr: 0x100002FB0, symSize: 0x14 }
  - { offset: 0x21FC6, size: 0x8, addend: 0x0, symName: __ZNSt3__124__put_character_sequenceB8ne180100IcNS_11char_traitsIcEEEERNS_13basic_ostreamIT_T0_EES7_PKS4_m, symObjAddr: 0x78, symBinAddr: 0x10000303C, symSize: 0x1EC }
  - { offset: 0x22E54, size: 0x8, addend: 0x0, symName: __ZNSt3__1lsB8ne180100INS_11char_traitsIcEEEERNS_13basic_ostreamIcT_EES6_PKc, symObjAddr: 0x30, symBinAddr: 0x100002FF4, symSize: 0x48 }
  - { offset: 0x22E9A, size: 0x8, addend: 0x0, symName: __ZNSt3__116__pad_and_outputB8ne180100IcNS_11char_traitsIcEEEENS_19ostreambuf_iteratorIT_T0_EES6_PKS4_S8_S8_RNS_8ios_baseES4_, symObjAddr: 0x2B4, symBinAddr: 0x100003278, symSize: 0x240 }
  - { offset: 0x22F6B, size: 0x8, addend: 0x0, symName: __ZNSt3__112__to_addressB8ne180100IcEEPT_S2_, symObjAddr: 0x82C, symBinAddr: 0x1000037E0, symSize: 0x14 }
  - { offset: 0x22FD3, size: 0x8, addend: 0x0, symName: __ZNSt3__19use_facetB8ne180100INS_5ctypeIcEEEERKT_RKNS_6localeE, symObjAddr: 0xAE4, symBinAddr: 0x100003A98, symSize: 0x2C }
  - { offset: 0x234A0, size: 0x8, addend: 0x0, symName: __ZNSt3__118__constexpr_strlenB8ne180100EPKc, symObjAddr: 0xB7C, symBinAddr: 0x100003B30, symSize: 0x24 }
  - { offset: 0x24351, size: 0x8, addend: 0x0, symName: __ZN5Shape4drawEv, symObjAddr: 0x0, symBinAddr: 0x100002FC4, symSize: 0x30 }
  - { offset: 0x24379, size: 0x8, addend: 0x0, symName: __ZNSt3__111char_traitsIcE6lengthB8ne180100EPKc, symObjAddr: 0x264, symBinAddr: 0x100003228, symSize: 0x34 }
  - { offset: 0x243BD, size: 0x8, addend: 0x0, symName: __ZNKSt3__113basic_ostreamIcNS_11char_traitsIcEEE6sentrycvbB8ne180100Ev, symObjAddr: 0x298, symBinAddr: 0x10000325C, symSize: 0x1C }
  - { offset: 0x243E3, size: 0x8, addend: 0x0, symName: __ZNSt3__119ostreambuf_iteratorIcNS_11char_traitsIcEEEC1B8ne180100ERNS_13basic_ostreamIcS2_EE, symObjAddr: 0x4F4, symBinAddr: 0x1000034B8, symSize: 0x34 }
  - { offset: 0x2441B, size: 0x8, addend: 0x0, symName: __ZNKSt3__18ios_base5flagsB8ne180100Ev, symObjAddr: 0x528, symBinAddr: 0x1000034EC, symSize: 0x18 }
  - { offset: 0x24443, size: 0x8, addend: 0x0, symName: __ZNKSt3__19basic_iosIcNS_11char_traitsIcEEE4fillB8ne180100Ev, symObjAddr: 0x540, symBinAddr: 0x100003504, symSize: 0x64 }
  - { offset: 0x2446B, size: 0x8, addend: 0x0, symName: __ZNKSt3__119ostreambuf_iteratorIcNS_11char_traitsIcEEE6failedB8ne180100Ev, symObjAddr: 0x5A4, symBinAddr: 0x100003568, symSize: 0x24 }
  - { offset: 0x24491, size: 0x8, addend: 0x0, symName: __ZNSt3__19basic_iosIcNS_11char_traitsIcEEE8setstateB8ne180100Ej, symObjAddr: 0x5C8, symBinAddr: 0x10000358C, symSize: 0x2C }
  - { offset: 0x244C6, size: 0x8, addend: 0x0, symName: __ZNKSt3__18ios_base5widthB8ne180100Ev, symObjAddr: 0x604, symBinAddr: 0x1000035B8, symSize: 0x18 }
  - { offset: 0x244EE, size: 0x8, addend: 0x0, symName: __ZNSt3__115basic_streambufIcNS_11char_traitsIcEEE5sputnB8ne180100EPKcl, symObjAddr: 0x61C, symBinAddr: 0x1000035D0, symSize: 0x3C }
  - { offset: 0x24530, size: 0x8, addend: 0x0, symName: __ZNSt3__112basic_stringIcNS_11char_traitsIcEENS_9allocatorIcEEEC1B8ne180100Emc, symObjAddr: 0x658, symBinAddr: 0x10000360C, symSize: 0x3C }
  - { offset: 0x24578, size: 0x8, addend: 0x0, symName: __ZNSt3__112basic_stringIcNS_11char_traitsIcEENS_9allocatorIcEEE4dataB8ne180100Ev, symObjAddr: 0x694, symBinAddr: 0x100003648, symSize: 0x28 }
  - { offset: 0x2459E, size: 0x8, addend: 0x0, symName: __ZNSt3__18ios_base5widthB8ne180100El, symObjAddr: 0x6BC, symBinAddr: 0x100003670, symSize: 0x2C }
  - { offset: 0x245E4, size: 0x8, addend: 0x0, symName: __ZNSt3__112basic_stringIcNS_11char_traitsIcEENS_9allocatorIcEEEC2B8ne180100Emc, symObjAddr: 0x6E8, symBinAddr: 0x10000369C, symSize: 0x4C }
  - { offset: 0x24632, size: 0x8, addend: 0x0, symName: __ZNSt3__117__compressed_pairINS_12basic_stringIcNS_11char_traitsIcEENS_9allocatorIcEEE5__repES5_EC1B8ne180100INS_18__default_init_tagESA_EEOT_OT0_, symObjAddr: 0x734, symBinAddr: 0x1000036E8, symSize: 0x3C }
  - { offset: 0x2468A, size: 0x8, addend: 0x0, symName: __ZNSt3__117__compressed_pairINS_12basic_stringIcNS_11char_traitsIcEENS_9allocatorIcEEE5__repES5_EC2B8ne180100INS_18__default_init_tagESA_EEOT_OT0_, symObjAddr: 0x770, symBinAddr: 0x100003724, symSize: 0x3C }
  - { offset: 0x246E2, size: 0x8, addend: 0x0, symName: __ZNSt3__122__compressed_pair_elemINS_12basic_stringIcNS_11char_traitsIcEENS_9allocatorIcEEE5__repELi0ELb0EEC2B8ne180100ENS_18__default_init_tagE, symObjAddr: 0x7AC, symBinAddr: 0x100003760, symSize: 0x14 }
  - { offset: 0x24717, size: 0x8, addend: 0x0, symName: __ZNSt3__122__compressed_pair_elemINS_9allocatorIcEELi1ELb1EEC2B8ne180100ENS_18__default_init_tagE, symObjAddr: 0x7C0, symBinAddr: 0x100003774, symSize: 0x2C }
  - { offset: 0x2474C, size: 0x8, addend: 0x0, symName: __ZNSt3__19allocatorIcEC2B8ne180100Ev, symObjAddr: 0x7EC, symBinAddr: 0x1000037A0, symSize: 0x2C }
  - { offset: 0x24776, size: 0x8, addend: 0x0, symName: __ZNSt3__116__non_trivial_ifILb1ENS_9allocatorIcEEEC2B8ne180100Ev, symObjAddr: 0x818, symBinAddr: 0x1000037CC, symSize: 0x14 }
  - { offset: 0x247A0, size: 0x8, addend: 0x0, symName: __ZNSt3__112basic_stringIcNS_11char_traitsIcEENS_9allocatorIcEEE13__get_pointerB8ne180100Ev, symObjAddr: 0x840, symBinAddr: 0x1000037F4, symSize: 0x54 }
  - { offset: 0x247C6, size: 0x8, addend: 0x0, symName: __ZNKSt3__112basic_stringIcNS_11char_traitsIcEENS_9allocatorIcEEE9__is_longB8ne180100Ev, symObjAddr: 0x894, symBinAddr: 0x100003848, symSize: 0x38 }
  - { offset: 0x247EC, size: 0x8, addend: 0x0, symName: __ZNSt3__112basic_stringIcNS_11char_traitsIcEENS_9allocatorIcEEE18__get_long_pointerB8ne180100Ev, symObjAddr: 0x8CC, symBinAddr: 0x100003880, symSize: 0x28 }
  - { offset: 0x24812, size: 0x8, addend: 0x0, symName: __ZNSt3__112basic_stringIcNS_11char_traitsIcEENS_9allocatorIcEEE19__get_short_pointerB8ne180100Ev, symObjAddr: 0x8F4, symBinAddr: 0x1000038A8, symSize: 0x28 }
  - { offset: 0x24838, size: 0x8, addend: 0x0, symName: __ZNKSt3__117__compressed_pairINS_12basic_stringIcNS_11char_traitsIcEENS_9allocatorIcEEE5__repES5_E5firstB8ne180100Ev, symObjAddr: 0x91C, symBinAddr: 0x1000038D0, symSize: 0x24 }
  - { offset: 0x2485E, size: 0x8, addend: 0x0, symName: __ZNKSt3__122__compressed_pair_elemINS_12basic_stringIcNS_11char_traitsIcEENS_9allocatorIcEEE5__repELi0ELb0EE5__getB8ne180100Ev, symObjAddr: 0x940, symBinAddr: 0x1000038F4, symSize: 0x14 }
  - { offset: 0x24884, size: 0x8, addend: 0x0, symName: __ZNSt3__117__compressed_pairINS_12basic_stringIcNS_11char_traitsIcEENS_9allocatorIcEEE5__repES5_E5firstB8ne180100Ev, symObjAddr: 0x954, symBinAddr: 0x100003908, symSize: 0x24 }
  - { offset: 0x248AA, size: 0x8, addend: 0x0, symName: __ZNSt3__122__compressed_pair_elemINS_12basic_stringIcNS_11char_traitsIcEENS_9allocatorIcEEE5__repELi0ELb0EE5__getB8ne180100Ev, symObjAddr: 0x978, symBinAddr: 0x10000392C, symSize: 0x14 }
  - { offset: 0x248D0, size: 0x8, addend: 0x0, symName: __ZNSt3__114pointer_traitsIPcE10pointer_toB8ne180100ERc, symObjAddr: 0x98C, symBinAddr: 0x100003940, symSize: 0x14 }
  - { offset: 0x248F3, size: 0x8, addend: 0x0, symName: __ZNSt3__119ostreambuf_iteratorIcNS_11char_traitsIcEEEC2B8ne180100ERNS_13basic_ostreamIcS2_EE, symObjAddr: 0x9A0, symBinAddr: 0x100003954, symSize: 0x54 }
  - { offset: 0x2492B, size: 0x8, addend: 0x0, symName: __ZNKSt3__19basic_iosIcNS_11char_traitsIcEEE5rdbufB8ne180100Ev, symObjAddr: 0x9F4, symBinAddr: 0x1000039A8, symSize: 0x24 }
  - { offset: 0x24953, size: 0x8, addend: 0x0, symName: __ZNKSt3__18ios_base5rdbufB8ne180100Ev, symObjAddr: 0xA18, symBinAddr: 0x1000039CC, symSize: 0x18 }
  - { offset: 0x24979, size: 0x8, addend: 0x0, symName: __ZNSt3__111char_traitsIcE11eq_int_typeB8ne180100Eii, symObjAddr: 0xA30, symBinAddr: 0x1000039E4, symSize: 0x28 }
  - { offset: 0x249AC, size: 0x8, addend: 0x0, symName: __ZNSt3__111char_traitsIcE3eofB8ne180100Ev, symObjAddr: 0xA58, symBinAddr: 0x100003A0C, symSize: 0x8 }
  - { offset: 0x249C0, size: 0x8, addend: 0x0, symName: __ZNKSt3__19basic_iosIcNS_11char_traitsIcEEE5widenB8ne180100Ec, symObjAddr: 0xA60, symBinAddr: 0x100003A14, symSize: 0x84 }
  - { offset: 0x24A2E, size: 0x8, addend: 0x0, symName: __ZNKSt3__15ctypeIcE5widenB8ne180100Ec, symObjAddr: 0xB10, symBinAddr: 0x100003AC4, symSize: 0x38 }
  - { offset: 0x24A63, size: 0x8, addend: 0x0, symName: __ZNSt3__18ios_base8setstateB8ne180100Ej, symObjAddr: 0xB48, symBinAddr: 0x100003AFC, symSize: 0x34 }
...
