---
triple:          'arm64-apple-darwin'
binary-path:     'bin/final'
relocations:
  - { offset: 0x51, size: 0x8, addend: 0x0, symName: __ZN2sf5Color5WhiteE, symObjAddr: 0x1EE4, symBinAddr: 0x100007C50, symSize: 0x0 }
  - { offset: 0x49AB, size: 0x8, addend: 0x0, symName: __ZNSt3__114in_place_indexILm0EEE, symObjAddr: 0x1EED, symBinAddr: 0x100007C59, symSize: 0x0 }
  - { offset: 0x49F0, size: 0x8, addend: 0x0, symName: __ZNSt3__114in_place_indexILm1EEE, symObjAddr: 0x1EEC, symBinAddr: 0x100007C58, symSize: 0x0 }
  - { offset: 0x4A35, size: 0x8, addend: 0x0, symName: __ZNSt3__114in_place_indexILm2EEE, symObjAddr: 0x1EEB, symBinAddr: 0x100007C57, symSize: 0x0 }
  - { offset: 0x4A7A, size: 0x8, addend: 0x0, symName: __ZNSt3__114in_place_indexILm3EEE, symObjAddr: 0x1EEA, symBinAddr: 0x100007C56, symSize: 0x0 }
  - { offset: 0x4ABF, size: 0x8, addend: 0x0, symName: __ZNSt3__114in_place_indexILm4EEE, symObjAddr: 0x1EE9, symBinAddr: 0x100007C55, symSize: 0x0 }
  - { offset: 0x4B04, size: 0x8, addend: 0x0, symName: __ZNSt3__114in_place_indexILm5EEE, symObjAddr: 0x1EE8, symBinAddr: 0x100007C54, symSize: 0x0 }
  - { offset: 0x4B49, size: 0x8, addend: 0x0, symName: __ZNSt3__114in_place_indexILm6EEE, symObjAddr: 0x1EF0, symBinAddr: 0x100007C5C, symSize: 0x0 }
  - { offset: 0x4B8E, size: 0x8, addend: 0x0, symName: __ZNSt3__114in_place_indexILm7EEE, symObjAddr: 0x1EEF, symBinAddr: 0x100007C5B, symSize: 0x0 }
  - { offset: 0x4BD3, size: 0x8, addend: 0x0, symName: __ZNSt3__114in_place_indexILm8EEE, symObjAddr: 0x1EEE, symBinAddr: 0x100007C5A, symSize: 0x0 }
  - { offset: 0x4C18, size: 0x8, addend: 0x0, symName: __ZNSt3__114in_place_indexILm9EEE, symObjAddr: 0x1EF2, symBinAddr: 0x100007C5E, symSize: 0x0 }
  - { offset: 0x4C5D, size: 0x8, addend: 0x0, symName: __ZNSt3__114in_place_indexILm10EEE, symObjAddr: 0x1EF1, symBinAddr: 0x100007C5D, symSize: 0x0 }
  - { offset: 0x13E81, size: 0x8, addend: 0x0, symName: __ZNSt3__16chrono13duration_castB8ne180100INS0_8durationIfNS_5ratioILl1ELl1EEEEExNS3_ILl1ELl1000000EEELi0EEET_RKNS2_IT0_T1_EE, symObjAddr: 0xEE0, symBinAddr: 0x100003EB0, symSize: 0x30 }
  - { offset: 0x19A87, size: 0x8, addend: 0x0, symName: __ZNSt3__119__libcpp_deallocateB8ne180100EPvmm, symObjAddr: 0xB74, symBinAddr: 0x100003B44, symSize: 0x60 }
  - { offset: 0x19AEC, size: 0x8, addend: 0x0, symName: __ZNSt3__124__is_overaligned_for_newB8ne180100Em, symObjAddr: 0xBE4, symBinAddr: 0x100003BB4, symSize: 0x20 }
  - { offset: 0x19B1A, size: 0x8, addend: 0x0, symName: __ZNSt3__127__do_deallocate_handle_sizeB8ne180100IJSt11align_val_tEEEvPvmDpT_, symObjAddr: 0xC04, symBinAddr: 0x100003BD4, symSize: 0x30 }
  - { offset: 0x19B6D, size: 0x8, addend: 0x0, symName: __ZNSt3__127__do_deallocate_handle_sizeB8ne180100IJEEEvPvmDpT_, symObjAddr: 0xC34, symBinAddr: 0x100003C04, symSize: 0x28 }
  - { offset: 0x19BAB, size: 0x8, addend: 0x0, symName: __ZNSt3__124__libcpp_operator_deleteB8ne180100IJPvSt11align_val_tEEEvDpT_, symObjAddr: 0xC5C, symBinAddr: 0x100003C2C, symSize: 0x2C }
  - { offset: 0x19BF4, size: 0x8, addend: 0x0, symName: __ZNSt3__124__libcpp_operator_deleteB8ne180100IJPvEEEvDpT_, symObjAddr: 0xC88, symBinAddr: 0x100003C58, symSize: 0x24 }
  - { offset: 0x19C29, size: 0x8, addend: 0x0, symName: __ZNSt3__112__to_addressB8ne180100IN2sf6VertexEEEPT_S4_, symObjAddr: 0x14D0, symBinAddr: 0x1000044A0, symSize: 0x14 }
  - { offset: 0x19C5E, size: 0x8, addend: 0x0, symName: __ZNSt3__117holds_alternativeB8ne180100IN2sf5Event6ClosedEJS3_NS2_7ResizedENS2_9FocusLostENS2_11FocusGainedENS2_11TextEnteredENS2_10KeyPressedENS2_11KeyReleasedENS2_18MouseWheelScrolledENS2_18MouseButtonPressedENS2_19MouseButtonReleasedENS2_10MouseMovedENS2_13MouseMovedRawENS2_12MouseEnteredENS2_9MouseLeftENS2_21JoystickButtonPressedENS2_22JoystickButtonReleasedENS2_13JoystickMovedENS2_17JoystickConnectedENS2_20JoystickDisconnectedENS2_10TouchBeganENS2_10TouchMovedENS2_10TouchEndedENS2_13SensorChangedEEEEbRKNS_7variantIJDpT0_EEE, symObjAddr: 0x1600, symBinAddr: 0x1000045D0, symSize: 0x28 }
  - { offset: 0x19D0E, size: 0x8, addend: 0x0, symName: __ZNSt3__119__holds_alternativeB8ne180100ILm0EJN2sf5Event6ClosedENS2_7ResizedENS2_9FocusLostENS2_11FocusGainedENS2_11TextEnteredENS2_10KeyPressedENS2_11KeyReleasedENS2_18MouseWheelScrolledENS2_18MouseButtonPressedENS2_19MouseButtonReleasedENS2_10MouseMovedENS2_13MouseMovedRawENS2_12MouseEnteredENS2_9MouseLeftENS2_21JoystickButtonPressedENS2_22JoystickButtonReleasedENS2_13JoystickMovedENS2_17JoystickConnectedENS2_20JoystickDisconnectedENS2_10TouchBeganENS2_10TouchMovedENS2_10TouchEndedENS2_13SensorChangedEEEEbRKNS_7variantIJDpT0_EEE, symObjAddr: 0x1628, symBinAddr: 0x1000045F8, symSize: 0x30 }
  - { offset: 0x19DBF, size: 0x8, addend: 0x0, symName: __ZNSt3__117holds_alternativeB8ne180100IN2sf5Event7ResizedEJNS2_6ClosedES3_NS2_9FocusLostENS2_11FocusGainedENS2_11TextEnteredENS2_10KeyPressedENS2_11KeyReleasedENS2_18MouseWheelScrolledENS2_18MouseButtonPressedENS2_19MouseButtonReleasedENS2_10MouseMovedENS2_13MouseMovedRawENS2_12MouseEnteredENS2_9MouseLeftENS2_21JoystickButtonPressedENS2_22JoystickButtonReleasedENS2_13JoystickMovedENS2_17JoystickConnectedENS2_20JoystickDisconnectedENS2_10TouchBeganENS2_10TouchMovedENS2_10TouchEndedENS2_13SensorChangedEEEEbRKNS_7variantIJDpT0_EEE, symObjAddr: 0x16C8, symBinAddr: 0x100004698, symSize: 0x28 }
  - { offset: 0x19E6F, size: 0x8, addend: 0x0, symName: __ZNSt3__119__holds_alternativeB8ne180100ILm1EJN2sf5Event6ClosedENS2_7ResizedENS2_9FocusLostENS2_11FocusGainedENS2_11TextEnteredENS2_10KeyPressedENS2_11KeyReleasedENS2_18MouseWheelScrolledENS2_18MouseButtonPressedENS2_19MouseButtonReleasedENS2_10MouseMovedENS2_13MouseMovedRawENS2_12MouseEnteredENS2_9MouseLeftENS2_21JoystickButtonPressedENS2_22JoystickButtonReleasedENS2_13JoystickMovedENS2_17JoystickConnectedENS2_20JoystickDisconnectedENS2_10TouchBeganENS2_10TouchMovedENS2_10TouchEndedENS2_13SensorChangedEEEEbRKNS_7variantIJDpT0_EEE, symObjAddr: 0x16F0, symBinAddr: 0x1000046C0, symSize: 0x30 }
  - { offset: 0x19F20, size: 0x8, addend: 0x0, symName: __ZNSt3__16get_ifB8ne180100IN2sf5Event10KeyPressedEJNS2_6ClosedENS2_7ResizedENS2_9FocusLostENS2_11FocusGainedENS2_11TextEnteredES3_NS2_11KeyReleasedENS2_18MouseWheelScrolledENS2_18MouseButtonPressedENS2_19MouseButtonReleasedENS2_10MouseMovedENS2_13MouseMovedRawENS2_12MouseEnteredENS2_9MouseLeftENS2_21JoystickButtonPressedENS2_22JoystickButtonReleasedENS2_13JoystickMovedENS2_17JoystickConnectedENS2_20JoystickDisconnectedENS2_10TouchBeganENS2_10TouchMovedENS2_10TouchEndedENS2_13SensorChangedEEEEu13__add_pointerIKT_EPKNS_7variantIJDpT0_EEE, symObjAddr: 0x1720, symBinAddr: 0x1000046F0, symSize: 0x24 }
  - { offset: 0x19FD0, size: 0x8, addend: 0x0, symName: __ZNSt3__16get_ifB8ne180100ILm5EJN2sf5Event6ClosedENS2_7ResizedENS2_9FocusLostENS2_11FocusGainedENS2_11TextEnteredENS2_10KeyPressedENS2_11KeyReleasedENS2_18MouseWheelScrolledENS2_18MouseButtonPressedENS2_19MouseButtonReleasedENS2_10MouseMovedENS2_13MouseMovedRawENS2_12MouseEnteredENS2_9MouseLeftENS2_21JoystickButtonPressedENS2_22JoystickButtonReleasedENS2_13JoystickMovedENS2_17JoystickConnectedENS2_20JoystickDisconnectedENS2_10TouchBeganENS2_10TouchMovedENS2_10TouchEndedENS2_13SensorChangedEEEEu13__add_pointerIKNS_19variant_alternativeIXT_ENS_7variantIJDpT0_EEEE4typeEEPKSU_, symObjAddr: 0x1744, symBinAddr: 0x100004714, symSize: 0x24 }
  - { offset: 0x1A081, size: 0x8, addend: 0x0, symName: __ZNSt3__116__generic_get_ifB8ne180100ILm5EKNS_7variantIJN2sf5Event6ClosedENS3_7ResizedENS3_9FocusLostENS3_11FocusGainedENS3_11TextEnteredENS3_10KeyPressedENS3_11KeyReleasedENS3_18MouseWheelScrolledENS3_18MouseButtonPressedENS3_19MouseButtonReleasedENS3_10MouseMovedENS3_13MouseMovedRawENS3_12MouseEnteredENS3_9MouseLeftENS3_21JoystickButtonPressedENS3_22JoystickButtonReleasedENS3_13JoystickMovedENS3_17JoystickConnectedENS3_20JoystickDisconnectedENS3_10TouchBeganENS3_10TouchMovedENS3_10TouchEndedENS3_13SensorChangedEEEEEEPDaPT0_, symObjAddr: 0x1768, symBinAddr: 0x100004738, symSize: 0x70 }
  - { offset: 0x1A0CA, size: 0x8, addend: 0x0, symName: __ZNSt3__119__holds_alternativeB8ne180100ILm5EJN2sf5Event6ClosedENS2_7ResizedENS2_9FocusLostENS2_11FocusGainedENS2_11TextEnteredENS2_10KeyPressedENS2_11KeyReleasedENS2_18MouseWheelScrolledENS2_18MouseButtonPressedENS2_19MouseButtonReleasedENS2_10MouseMovedENS2_13MouseMovedRawENS2_12MouseEnteredENS2_9MouseLeftENS2_21JoystickButtonPressedENS2_22JoystickButtonReleasedENS2_13JoystickMovedENS2_17JoystickConnectedENS2_20JoystickDisconnectedENS2_10TouchBeganENS2_10TouchMovedENS2_10TouchEndedENS2_13SensorChangedEEEEbRKNS_7variantIJDpT0_EEE, symObjAddr: 0x17D8, symBinAddr: 0x1000047A8, symSize: 0x30 }
  - { offset: 0x1A17B, size: 0x8, addend: 0x0, symName: __ZNSt3__16get_ifB8ne180100IN2sf5Event18MouseButtonPressedEJNS2_6ClosedENS2_7ResizedENS2_9FocusLostENS2_11FocusGainedENS2_11TextEnteredENS2_10KeyPressedENS2_11KeyReleasedENS2_18MouseWheelScrolledES3_NS2_19MouseButtonReleasedENS2_10MouseMovedENS2_13MouseMovedRawENS2_12MouseEnteredENS2_9MouseLeftENS2_21JoystickButtonPressedENS2_22JoystickButtonReleasedENS2_13JoystickMovedENS2_17JoystickConnectedENS2_20JoystickDisconnectedENS2_10TouchBeganENS2_10TouchMovedENS2_10TouchEndedENS2_13SensorChangedEEEEu13__add_pointerIKT_EPKNS_7variantIJDpT0_EEE, symObjAddr: 0x1918, symBinAddr: 0x1000048E8, symSize: 0x24 }
  - { offset: 0x1A22B, size: 0x8, addend: 0x0, symName: __ZNSt3__16get_ifB8ne180100ILm8EJN2sf5Event6ClosedENS2_7ResizedENS2_9FocusLostENS2_11FocusGainedENS2_11TextEnteredENS2_10KeyPressedENS2_11KeyReleasedENS2_18MouseWheelScrolledENS2_18MouseButtonPressedENS2_19MouseButtonReleasedENS2_10MouseMovedENS2_13MouseMovedRawENS2_12MouseEnteredENS2_9MouseLeftENS2_21JoystickButtonPressedENS2_22JoystickButtonReleasedENS2_13JoystickMovedENS2_17JoystickConnectedENS2_20JoystickDisconnectedENS2_10TouchBeganENS2_10TouchMovedENS2_10TouchEndedENS2_13SensorChangedEEEEu13__add_pointerIKNS_19variant_alternativeIXT_ENS_7variantIJDpT0_EEEE4typeEEPKSU_, symObjAddr: 0x193C, symBinAddr: 0x10000490C, symSize: 0x24 }
  - { offset: 0x1A2DC, size: 0x8, addend: 0x0, symName: __ZNSt3__116__generic_get_ifB8ne180100ILm8EKNS_7variantIJN2sf5Event6ClosedENS3_7ResizedENS3_9FocusLostENS3_11FocusGainedENS3_11TextEnteredENS3_10KeyPressedENS3_11KeyReleasedENS3_18MouseWheelScrolledENS3_18MouseButtonPressedENS3_19MouseButtonReleasedENS3_10MouseMovedENS3_13MouseMovedRawENS3_12MouseEnteredENS3_9MouseLeftENS3_21JoystickButtonPressedENS3_22JoystickButtonReleasedENS3_13JoystickMovedENS3_17JoystickConnectedENS3_20JoystickDisconnectedENS3_10TouchBeganENS3_10TouchMovedENS3_10TouchEndedENS3_13SensorChangedEEEEEEPDaPT0_, symObjAddr: 0x1960, symBinAddr: 0x100004930, symSize: 0x70 }
  - { offset: 0x1A325, size: 0x8, addend: 0x0, symName: __ZNSt3__119__holds_alternativeB8ne180100ILm8EJN2sf5Event6ClosedENS2_7ResizedENS2_9FocusLostENS2_11FocusGainedENS2_11TextEnteredENS2_10KeyPressedENS2_11KeyReleasedENS2_18MouseWheelScrolledENS2_18MouseButtonPressedENS2_19MouseButtonReleasedENS2_10MouseMovedENS2_13MouseMovedRawENS2_12MouseEnteredENS2_9MouseLeftENS2_21JoystickButtonPressedENS2_22JoystickButtonReleasedENS2_13JoystickMovedENS2_17JoystickConnectedENS2_20JoystickDisconnectedENS2_10TouchBeganENS2_10TouchMovedENS2_10TouchEndedENS2_13SensorChangedEEEEbRKNS_7variantIJDpT0_EEE, symObjAddr: 0x19D0, symBinAddr: 0x1000049A0, symSize: 0x30 }
  - { offset: 0x1A3D6, size: 0x8, addend: 0x0, symName: __ZNSt3__16get_ifB8ne180100IN2sf5Event10MouseMovedEJNS2_6ClosedENS2_7ResizedENS2_9FocusLostENS2_11FocusGainedENS2_11TextEnteredENS2_10KeyPressedENS2_11KeyReleasedENS2_18MouseWheelScrolledENS2_18MouseButtonPressedENS2_19MouseButtonReleasedES3_NS2_13MouseMovedRawENS2_12MouseEnteredENS2_9MouseLeftENS2_21JoystickButtonPressedENS2_22JoystickButtonReleasedENS2_13JoystickMovedENS2_17JoystickConnectedENS2_20JoystickDisconnectedENS2_10TouchBeganENS2_10TouchMovedENS2_10TouchEndedENS2_13SensorChangedEEEEu13__add_pointerIKT_EPKNS_7variantIJDpT0_EEE, symObjAddr: 0x1B7C, symBinAddr: 0x100004B4C, symSize: 0x24 }
  - { offset: 0x1A486, size: 0x8, addend: 0x0, symName: __ZNSt3__16get_ifB8ne180100ILm10EJN2sf5Event6ClosedENS2_7ResizedENS2_9FocusLostENS2_11FocusGainedENS2_11TextEnteredENS2_10KeyPressedENS2_11KeyReleasedENS2_18MouseWheelScrolledENS2_18MouseButtonPressedENS2_19MouseButtonReleasedENS2_10MouseMovedENS2_13MouseMovedRawENS2_12MouseEnteredENS2_9MouseLeftENS2_21JoystickButtonPressedENS2_22JoystickButtonReleasedENS2_13JoystickMovedENS2_17JoystickConnectedENS2_20JoystickDisconnectedENS2_10TouchBeganENS2_10TouchMovedENS2_10TouchEndedENS2_13SensorChangedEEEEu13__add_pointerIKNS_19variant_alternativeIXT_ENS_7variantIJDpT0_EEEE4typeEEPKSU_, symObjAddr: 0x1BA0, symBinAddr: 0x100004B70, symSize: 0x24 }
  - { offset: 0x1A537, size: 0x8, addend: 0x0, symName: __ZNSt3__116__generic_get_ifB8ne180100ILm10EKNS_7variantIJN2sf5Event6ClosedENS3_7ResizedENS3_9FocusLostENS3_11FocusGainedENS3_11TextEnteredENS3_10KeyPressedENS3_11KeyReleasedENS3_18MouseWheelScrolledENS3_18MouseButtonPressedENS3_19MouseButtonReleasedENS3_10MouseMovedENS3_13MouseMovedRawENS3_12MouseEnteredENS3_9MouseLeftENS3_21JoystickButtonPressedENS3_22JoystickButtonReleasedENS3_13JoystickMovedENS3_17JoystickConnectedENS3_20JoystickDisconnectedENS3_10TouchBeganENS3_10TouchMovedENS3_10TouchEndedENS3_13SensorChangedEEEEEEPDaPT0_, symObjAddr: 0x1BC4, symBinAddr: 0x100004B94, symSize: 0x70 }
  - { offset: 0x1A580, size: 0x8, addend: 0x0, symName: __ZNSt3__119__holds_alternativeB8ne180100ILm10EJN2sf5Event6ClosedENS2_7ResizedENS2_9FocusLostENS2_11FocusGainedENS2_11TextEnteredENS2_10KeyPressedENS2_11KeyReleasedENS2_18MouseWheelScrolledENS2_18MouseButtonPressedENS2_19MouseButtonReleasedENS2_10MouseMovedENS2_13MouseMovedRawENS2_12MouseEnteredENS2_9MouseLeftENS2_21JoystickButtonPressedENS2_22JoystickButtonReleasedENS2_13JoystickMovedENS2_17JoystickConnectedENS2_20JoystickDisconnectedENS2_10TouchBeganENS2_10TouchMovedENS2_10TouchEndedENS2_13SensorChangedEEEEbRKNS_7variantIJDpT0_EEE, symObjAddr: 0x1C34, symBinAddr: 0x100004C04, symSize: 0x30 }
  - { offset: 0x1D386, size: 0x8, addend: 0x0, symName: __ZNKSt3__16chrono15__duration_castINS0_8durationIxNS_5ratioILl1ELl1000000EEEEENS2_IfNS3_ILl1ELl1EEEEES4_Lb1ELb0EEclB8ne180100ERKS5_, symObjAddr: 0xF10, symBinAddr: 0x100003EE0, symSize: 0x50 }
  - { offset: 0x1D4C9, size: 0x8, addend: 0x0, symName: _main, symObjAddr: 0x0, symBinAddr: 0x100002FD0, symSize: 0x568 }
  - { offset: 0x1D5C3, size: 0x8, addend: 0x0, symName: __ZN2sf15ContextSettingsC1Ev, symObjAddr: 0x568, symBinAddr: 0x100003538, symSize: 0x2C }
  - { offset: 0x1D5EF, size: 0x8, addend: 0x0, symName: __ZN2sf7Vector2IjEC1Ejj, symObjAddr: 0x594, symBinAddr: 0x100003564, symSize: 0x3C }
  - { offset: 0x1D637, size: 0x8, addend: 0x0, symName: __ZN2sf6StringD1Ev, symObjAddr: 0x5D0, symBinAddr: 0x1000035A0, symSize: 0x2C }
  - { offset: 0x1D663, size: 0x8, addend: 0x0, symName: __ZN2sf5ClockC1Ev, symObjAddr: 0x5FC, symBinAddr: 0x1000035CC, symSize: 0x2C }
  - { offset: 0x1D68F, size: 0x8, addend: 0x0, symName: __ZNK2sf4Time9asSecondsEv, symObjAddr: 0x628, symBinAddr: 0x1000035F8, symSize: 0x34 }
  - { offset: 0x1D6B7, size: 0x8, addend: 0x0, symName: __ZNKSt3__18optionalIN2sf5EventEEcvbB8ne180100Ev, symObjAddr: 0x65C, symBinAddr: 0x10000362C, symSize: 0x28 }
  - { offset: 0x1D6DD, size: 0x8, addend: 0x0, symName: __ZNKSt3__18optionalIN2sf5EventEEptB8ne180100Ev, symObjAddr: 0x684, symBinAddr: 0x100003654, symSize: 0x24 }
  - { offset: 0x1D708, size: 0x8, addend: 0x0, symName: __ZNK2sf5Event2isINS0_6ClosedEEEbv, symObjAddr: 0x6A8, symBinAddr: 0x100003678, symSize: 0x28 }
  - { offset: 0x1D737, size: 0x8, addend: 0x0, symName: __ZNK2sf5Event2isINS0_7ResizedEEEbv, symObjAddr: 0x6D0, symBinAddr: 0x1000036A0, symSize: 0x28 }
  - { offset: 0x1D766, size: 0x8, addend: 0x0, symName: __ZN2sf7Vector2IfEC1Eff, symObjAddr: 0x6F8, symBinAddr: 0x1000036C8, symSize: 0x3C }
  - { offset: 0x1D7AE, size: 0x8, addend: 0x0, symName: __ZNK2sf7Vector2IjEcvNS0_IT_EEIfEEv, symObjAddr: 0x734, symBinAddr: 0x100003704, symSize: 0x40 }
  - { offset: 0x1D7DF, size: 0x8, addend: 0x0, symName: __ZN2sf4RectIfEC1ENS_7Vector2IfEES3_, symObjAddr: 0x774, symBinAddr: 0x100003744, symSize: 0x4C }
  - { offset: 0x1D831, size: 0x8, addend: 0x0, symName: __ZNK2sf5Event5getIfINS0_10KeyPressedEEEPKT_v, symObjAddr: 0x7C0, symBinAddr: 0x100003790, symSize: 0x24 }
  - { offset: 0x1D86A, size: 0x8, addend: 0x0, symName: __ZNK2sf5Event5getIfINS0_18MouseButtonPressedEEEPKT_v, symObjAddr: 0x7E4, symBinAddr: 0x1000037B4, symSize: 0x24 }
  - { offset: 0x1D8A3, size: 0x8, addend: 0x0, symName: __ZNK2sf5Event5getIfINS0_10MouseMovedEEEPKT_v, symObjAddr: 0x808, symBinAddr: 0x1000037D8, symSize: 0x24 }
  - { offset: 0x1D8D2, size: 0x8, addend: 0x0, symName: __ZN2sf5ColorC1Ehhhh, symObjAddr: 0x82C, symBinAddr: 0x1000037FC, symSize: 0x4C }
  - { offset: 0x1D972, size: 0x8, addend: 0x0, symName: __ZN2sf11CircleShapeD1Ev, symObjAddr: 0x878, symBinAddr: 0x100003848, symSize: 0x2C }
  - { offset: 0x1DB70, size: 0x8, addend: 0x0, symName: __ZN4BallD1Ev, symObjAddr: 0x8A4, symBinAddr: 0x100003874, symSize: 0x2C }
  - { offset: 0x1DB9C, size: 0x8, addend: 0x0, symName: __ZN2sf15ContextSettingsC2Ev, symObjAddr: 0x8D0, symBinAddr: 0x1000038A0, symSize: 0x34 }
  - { offset: 0x1DBC8, size: 0x8, addend: 0x0, symName: __ZN2sf7Vector2IjEC2Ejj, symObjAddr: 0x904, symBinAddr: 0x1000038D4, symSize: 0x2C }
  - { offset: 0x1DC10, size: 0x8, addend: 0x0, symName: __ZN2sf6StringD2Ev, symObjAddr: 0x930, symBinAddr: 0x100003900, symSize: 0x2C }
  - { offset: 0x1DC3C, size: 0x8, addend: 0x0, symName: __ZNSt3__112basic_stringIDiNS_11char_traitsIDiEENS_9allocatorIDiEEED1Ev, symObjAddr: 0x95C, symBinAddr: 0x10000392C, symSize: 0x2C }
  - { offset: 0x1DC66, size: 0x8, addend: 0x0, symName: __ZNSt3__112basic_stringIDiNS_11char_traitsIDiEENS_9allocatorIDiEEED2Ev, symObjAddr: 0x988, symBinAddr: 0x100003958, symSize: 0x7C }
  - { offset: 0x1DC90, size: 0x8, addend: 0x0, symName: __ZNKSt3__112basic_stringIDiNS_11char_traitsIDiEENS_9allocatorIDiEEE17__annotate_deleteB8ne180100Ev, symObjAddr: 0xA04, symBinAddr: 0x1000039D4, symSize: 0x10 }
  - { offset: 0x1DCB6, size: 0x8, addend: 0x0, symName: __ZNKSt3__112basic_stringIDiNS_11char_traitsIDiEENS_9allocatorIDiEEE9__is_longB8ne180100Ev, symObjAddr: 0xA14, symBinAddr: 0x1000039E4, symSize: 0x38 }
  - { offset: 0x1DCDC, size: 0x8, addend: 0x0, symName: __ZNSt3__116allocator_traitsINS_9allocatorIDiEEE10deallocateB8ne180100ERS2_PDim, symObjAddr: 0xA4C, symBinAddr: 0x100003A1C, symSize: 0x34 }
  - { offset: 0x1DD1E, size: 0x8, addend: 0x0, symName: __ZNSt3__112basic_stringIDiNS_11char_traitsIDiEENS_9allocatorIDiEEE7__allocB8ne180100Ev, symObjAddr: 0xA80, symBinAddr: 0x100003A50, symSize: 0x24 }
  - { offset: 0x1DD44, size: 0x8, addend: 0x0, symName: __ZNSt3__112basic_stringIDiNS_11char_traitsIDiEENS_9allocatorIDiEEE18__get_long_pointerB8ne180100Ev, symObjAddr: 0xAA4, symBinAddr: 0x100003A74, symSize: 0x28 }
  - { offset: 0x1DD6A, size: 0x8, addend: 0x0, symName: __ZNKSt3__112basic_stringIDiNS_11char_traitsIDiEENS_9allocatorIDiEEE14__get_long_capB8ne180100Ev, symObjAddr: 0xACC, symBinAddr: 0x100003A9C, symSize: 0x30 }
  - { offset: 0x1DD90, size: 0x8, addend: 0x0, symName: __ZNKSt3__117__compressed_pairINS_12basic_stringIDiNS_11char_traitsIDiEENS_9allocatorIDiEEE5__repES5_E5firstB8ne180100Ev, symObjAddr: 0xAFC, symBinAddr: 0x100003ACC, symSize: 0x24 }
  - { offset: 0x1DDB6, size: 0x8, addend: 0x0, symName: __ZNKSt3__122__compressed_pair_elemINS_12basic_stringIDiNS_11char_traitsIDiEENS_9allocatorIDiEEE5__repELi0ELb0EE5__getB8ne180100Ev, symObjAddr: 0xB20, symBinAddr: 0x100003AF0, symSize: 0x14 }
  - { offset: 0x1DDDC, size: 0x8, addend: 0x0, symName: __ZNSt3__19allocatorIDiE10deallocateB8ne180100EPDim, symObjAddr: 0xB34, symBinAddr: 0x100003B04, symSize: 0x40 }
  - { offset: 0x1DE1E, size: 0x8, addend: 0x0, symName: __ZNSt3__117__compressed_pairINS_12basic_stringIDiNS_11char_traitsIDiEENS_9allocatorIDiEEE5__repES5_E6secondB8ne180100Ev, symObjAddr: 0xCAC, symBinAddr: 0x100003C7C, symSize: 0x24 }
  - { offset: 0x1DE44, size: 0x8, addend: 0x0, symName: __ZNSt3__122__compressed_pair_elemINS_9allocatorIDiEELi1ELb1EE5__getB8ne180100Ev, symObjAddr: 0xCD0, symBinAddr: 0x100003CA0, symSize: 0x14 }
  - { offset: 0x1DE6A, size: 0x8, addend: 0x0, symName: __ZNSt3__117__compressed_pairINS_12basic_stringIDiNS_11char_traitsIDiEENS_9allocatorIDiEEE5__repES5_E5firstB8ne180100Ev, symObjAddr: 0xCE4, symBinAddr: 0x100003CB4, symSize: 0x24 }
  - { offset: 0x1DE90, size: 0x8, addend: 0x0, symName: __ZNSt3__122__compressed_pair_elemINS_12basic_stringIDiNS_11char_traitsIDiEENS_9allocatorIDiEEE5__repELi0ELb0EE5__getB8ne180100Ev, symObjAddr: 0xD08, symBinAddr: 0x100003CD8, symSize: 0x14 }
  - { offset: 0x1DEB6, size: 0x8, addend: 0x0, symName: __ZN2sf5ClockC2Ev, symObjAddr: 0xD1C, symBinAddr: 0x100003CEC, symSize: 0x3C }
  - { offset: 0x1DEE2, size: 0x8, addend: 0x0, symName: __ZNSt3__16chrono10time_pointINS0_12steady_clockENS0_8durationIxNS_5ratioILl1ELl1000000000EEEEEEC1B8ne180100Ev, symObjAddr: 0xD58, symBinAddr: 0x100003D28, symSize: 0x2C }
  - { offset: 0x1DF0C, size: 0x8, addend: 0x0, symName: __ZNSt3__16chrono10time_pointINS0_12steady_clockENS0_8durationIxNS_5ratioILl1ELl1000000000EEEEEEC2B8ne180100Ev, symObjAddr: 0xD84, symBinAddr: 0x100003D54, symSize: 0x34 }
  - { offset: 0x1DF36, size: 0x8, addend: 0x0, symName: __ZNSt3__16chrono8durationIxNS_5ratioILl1ELl1000000000EEEE4zeroB8ne180100Ev, symObjAddr: 0xDB8, symBinAddr: 0x100003D88, symSize: 0x38 }
  - { offset: 0x1DF4A, size: 0x8, addend: 0x0, symName: __ZNSt3__16chrono15duration_valuesIxE4zeroB8ne180100Ev, symObjAddr: 0xDF0, symBinAddr: 0x100003DC0, symSize: 0x8 }
  - { offset: 0x1DF69, size: 0x8, addend: 0x0, symName: __ZNSt3__16chrono8durationIxNS_5ratioILl1ELl1000000000EEEEC1B8ne180100IxLi0EEERKT_, symObjAddr: 0xDF8, symBinAddr: 0x100003DC8, symSize: 0x34 }
  - { offset: 0x1DFB0, size: 0x8, addend: 0x0, symName: __ZNSt3__16chrono8durationIxNS_5ratioILl1ELl1000000000EEEEC2B8ne180100IxLi0EEERKT_, symObjAddr: 0xE2C, symBinAddr: 0x100003DFC, symSize: 0x24 }
  - { offset: 0x1DFF7, size: 0x8, addend: 0x0, symName: __ZNSt3__16chrono8durationIfNS_5ratioILl1ELl1EEEEC1B8ne180100IxNS2_ILl1ELl1000000EEELi0EEERKNS1_IT_T0_EE, symObjAddr: 0xE50, symBinAddr: 0x100003E20, symSize: 0x34 }
  - { offset: 0x1E047, size: 0x8, addend: 0x0, symName: __ZNKSt3__16chrono8durationIfNS_5ratioILl1ELl1EEEE5countB8ne180100Ev, symObjAddr: 0xE84, symBinAddr: 0x100003E54, symSize: 0x18 }
  - { offset: 0x1E06D, size: 0x8, addend: 0x0, symName: __ZNSt3__16chrono8durationIfNS_5ratioILl1ELl1EEEEC2B8ne180100IxNS2_ILl1ELl1000000EEELi0EEERKNS1_IT_T0_EE, symObjAddr: 0xE9C, symBinAddr: 0x100003E6C, symSize: 0x44 }
  - { offset: 0x1E0BD, size: 0x8, addend: 0x0, symName: __ZNKSt3__16chrono8durationIxNS_5ratioILl1ELl1000000EEEE5countB8ne180100Ev, symObjAddr: 0xF60, symBinAddr: 0x100003F30, symSize: 0x18 }
  - { offset: 0x1E0E3, size: 0x8, addend: 0x0, symName: __ZNSt3__16chrono8durationIfNS_5ratioILl1ELl1EEEEC1B8ne180100IfLi0EEERKT_, symObjAddr: 0xF78, symBinAddr: 0x100003F48, symSize: 0x34 }
  - { offset: 0x1E12A, size: 0x8, addend: 0x0, symName: __ZNSt3__16chrono8durationIfNS_5ratioILl1ELl1EEEEC2B8ne180100IfLi0EEERKT_, symObjAddr: 0xFAC, symBinAddr: 0x100003F7C, symSize: 0x24 }
  - { offset: 0x1E171, size: 0x8, addend: 0x0, symName: __ZNKSt3__123__optional_storage_baseIN2sf5EventELb0EE9has_valueB8ne180100Ev, symObjAddr: 0xFD0, symBinAddr: 0x100003FA0, symSize: 0x1C }
  - { offset: 0x1E197, size: 0x8, addend: 0x0, symName: __ZNKRSt3__123__optional_storage_baseIN2sf5EventELb0EE5__getB8ne180100Ev, symObjAddr: 0xFEC, symBinAddr: 0x100003FBC, symSize: 0x14 }
  - { offset: 0x1E1BD, size: 0x8, addend: 0x0, symName: __ZN2sf7Vector2IfEC2Eff, symObjAddr: 0x1000, symBinAddr: 0x100003FD0, symSize: 0x2C }
  - { offset: 0x1E205, size: 0x8, addend: 0x0, symName: __ZN2sf4RectIfEC2ENS_7Vector2IfEES3_, symObjAddr: 0x102C, symBinAddr: 0x100003FFC, symSize: 0x34 }
  - { offset: 0x1E24D, size: 0x8, addend: 0x0, symName: __ZN2sf5ColorC2Ehhhh, symObjAddr: 0x1060, symBinAddr: 0x100004030, symSize: 0x44 }
  - { offset: 0x1E2B1, size: 0x8, addend: 0x0, symName: __ZN2sf11CircleShapeD2Ev, symObjAddr: 0x10A4, symBinAddr: 0x100004074, symSize: 0x2C }
  - { offset: 0x1E2DD, size: 0x8, addend: 0x0, symName: __ZThn8_N2sf11CircleShapeD1Ev, symObjAddr: 0x10D0, symBinAddr: 0x1000040A0, symSize: 0x1C }
  - { offset: 0x1E2F3, size: 0x8, addend: 0x0, symName: __ZN2sf5ShapeD2Ev, symObjAddr: 0x10EC, symBinAddr: 0x1000040BC, symSize: 0x68 }
  - { offset: 0x1E31F, size: 0x8, addend: 0x0, symName: __ZN2sf11VertexArrayD1Ev, symObjAddr: 0x1154, symBinAddr: 0x100004124, symSize: 0x2C }
  - { offset: 0x1E34B, size: 0x8, addend: 0x0, symName: __ZN2sf13TransformableD2Ev, symObjAddr: 0x1180, symBinAddr: 0x100004150, symSize: 0x14 }
  - { offset: 0x1E375, size: 0x8, addend: 0x0, symName: __ZN2sf8DrawableD2Ev, symObjAddr: 0x1194, symBinAddr: 0x100004164, symSize: 0x14 }
  - { offset: 0x1E39F, size: 0x8, addend: 0x0, symName: __ZN2sf11VertexArrayD2Ev, symObjAddr: 0x11A8, symBinAddr: 0x100004178, symSize: 0x48 }
  - { offset: 0x1E3CB, size: 0x8, addend: 0x0, symName: __ZNSt3__16vectorIN2sf6VertexENS_9allocatorIS2_EEED1B8ne180100Ev, symObjAddr: 0x11F0, symBinAddr: 0x1000041C0, symSize: 0x2C }
  - { offset: 0x1E3F5, size: 0x8, addend: 0x0, symName: __ZNSt3__16vectorIN2sf6VertexENS_9allocatorIS2_EEED2B8ne180100Ev, symObjAddr: 0x121C, symBinAddr: 0x1000041EC, symSize: 0x44 }
  - { offset: 0x1E41F, size: 0x8, addend: 0x0, symName: __ZNSt3__16vectorIN2sf6VertexENS_9allocatorIS2_EEE16__destroy_vectorC1B8ne180100ERS5_, symObjAddr: 0x1260, symBinAddr: 0x100004230, symSize: 0x34 }
  - { offset: 0x1E458, size: 0x8, addend: 0x0, symName: __ZNSt3__16vectorIN2sf6VertexENS_9allocatorIS2_EEE16__destroy_vectorclB8ne180100Ev, symObjAddr: 0x1294, symBinAddr: 0x100004264, symSize: 0x90 }
  - { offset: 0x1E47E, size: 0x8, addend: 0x0, symName: __ZNSt3__16vectorIN2sf6VertexENS_9allocatorIS2_EEE16__destroy_vectorC2B8ne180100ERS5_, symObjAddr: 0x1324, symBinAddr: 0x1000042F4, symSize: 0x20 }
  - { offset: 0x1E4B7, size: 0x8, addend: 0x0, symName: __ZNSt3__16vectorIN2sf6VertexENS_9allocatorIS2_EEE7__clearB8ne180100Ev, symObjAddr: 0x1344, symBinAddr: 0x100004314, symSize: 0x28 }
  - { offset: 0x1E4DD, size: 0x8, addend: 0x0, symName: __ZNKSt3__16vectorIN2sf6VertexENS_9allocatorIS2_EEE17__annotate_deleteB8ne180100Ev, symObjAddr: 0x136C, symBinAddr: 0x10000433C, symSize: 0x10 }
  - { offset: 0x1E503, size: 0x8, addend: 0x0, symName: __ZNSt3__116allocator_traitsINS_9allocatorIN2sf6VertexEEEE10deallocateB8ne180100ERS4_PS3_m, symObjAddr: 0x137C, symBinAddr: 0x10000434C, symSize: 0x34 }
  - { offset: 0x1E545, size: 0x8, addend: 0x0, symName: __ZNSt3__16vectorIN2sf6VertexENS_9allocatorIS2_EEE7__allocB8ne180100Ev, symObjAddr: 0x13B0, symBinAddr: 0x100004380, symSize: 0x28 }
  - { offset: 0x1E56B, size: 0x8, addend: 0x0, symName: __ZNKSt3__16vectorIN2sf6VertexENS_9allocatorIS2_EEE8capacityB8ne180100Ev, symObjAddr: 0x13D8, symBinAddr: 0x1000043A8, symSize: 0x40 }
  - { offset: 0x1E591, size: 0x8, addend: 0x0, symName: __ZNSt3__16vectorIN2sf6VertexENS_9allocatorIS2_EEE22__base_destruct_at_endB8ne180100EPS2_, symObjAddr: 0x1418, symBinAddr: 0x1000043E8, symSize: 0x8C }
  - { offset: 0x1E5D5, size: 0x8, addend: 0x0, symName: __ZNSt3__116allocator_traitsINS_9allocatorIN2sf6VertexEEEE7destroyB8ne180100IS3_vEEvRS4_PT_, symObjAddr: 0x14A4, symBinAddr: 0x100004474, symSize: 0x2C }
  - { offset: 0x1E612, size: 0x8, addend: 0x0, symName: __ZNSt3__19allocatorIN2sf6VertexEE7destroyB8ne180100EPS2_, symObjAddr: 0x14E4, symBinAddr: 0x1000044B4, symSize: 0x14 }
  - { offset: 0x1E646, size: 0x8, addend: 0x0, symName: __ZNSt3__19allocatorIN2sf6VertexEE10deallocateB8ne180100EPS2_m, symObjAddr: 0x14F8, symBinAddr: 0x1000044C8, symSize: 0x44 }
  - { offset: 0x1E688, size: 0x8, addend: 0x0, symName: __ZNSt3__117__compressed_pairIPN2sf6VertexENS_9allocatorIS2_EEE6secondB8ne180100Ev, symObjAddr: 0x153C, symBinAddr: 0x10000450C, symSize: 0x24 }
  - { offset: 0x1E6AE, size: 0x8, addend: 0x0, symName: __ZNSt3__122__compressed_pair_elemINS_9allocatorIN2sf6VertexEEELi1ELb1EE5__getB8ne180100Ev, symObjAddr: 0x1560, symBinAddr: 0x100004530, symSize: 0x14 }
  - { offset: 0x1E6D4, size: 0x8, addend: 0x0, symName: __ZNKSt3__16vectorIN2sf6VertexENS_9allocatorIS2_EEE9__end_capB8ne180100Ev, symObjAddr: 0x1574, symBinAddr: 0x100004544, symSize: 0x28 }
  - { offset: 0x1E6FA, size: 0x8, addend: 0x0, symName: __ZNKSt3__117__compressed_pairIPN2sf6VertexENS_9allocatorIS2_EEE5firstB8ne180100Ev, symObjAddr: 0x159C, symBinAddr: 0x10000456C, symSize: 0x24 }
  - { offset: 0x1E720, size: 0x8, addend: 0x0, symName: __ZNKSt3__122__compressed_pair_elemIPN2sf6VertexELi0ELb0EE5__getB8ne180100Ev, symObjAddr: 0x15C0, symBinAddr: 0x100004590, symSize: 0x14 }
  - { offset: 0x1E746, size: 0x8, addend: 0x0, symName: __ZN4BallD2Ev, symObjAddr: 0x15D4, symBinAddr: 0x1000045A4, symSize: 0x2C }
  - { offset: 0x1E772, size: 0x8, addend: 0x0, symName: __ZNKSt3__17variantIJN2sf5Event6ClosedENS2_7ResizedENS2_9FocusLostENS2_11FocusGainedENS2_11TextEnteredENS2_10KeyPressedENS2_11KeyReleasedENS2_18MouseWheelScrolledENS2_18MouseButtonPressedENS2_19MouseButtonReleasedENS2_10MouseMovedENS2_13MouseMovedRawENS2_12MouseEnteredENS2_9MouseLeftENS2_21JoystickButtonPressedENS2_22JoystickButtonReleasedENS2_13JoystickMovedENS2_17JoystickConnectedENS2_20JoystickDisconnectedENS2_10TouchBeganENS2_10TouchMovedENS2_10TouchEndedENS2_13SensorChangedEEE5indexB8ne180100Ev, symObjAddr: 0x1658, symBinAddr: 0x100004628, symSize: 0x24 }
  - { offset: 0x1E798, size: 0x8, addend: 0x0, symName: __ZNKSt3__116__variant_detail6__baseILNS0_6_TraitE0EJN2sf5Event6ClosedENS4_7ResizedENS4_9FocusLostENS4_11FocusGainedENS4_11TextEnteredENS4_10KeyPressedENS4_11KeyReleasedENS4_18MouseWheelScrolledENS4_18MouseButtonPressedENS4_19MouseButtonReleasedENS4_10MouseMovedENS4_13MouseMovedRawENS4_12MouseEnteredENS4_9MouseLeftENS4_21JoystickButtonPressedENS4_22JoystickButtonReleasedENS4_13JoystickMovedENS4_17JoystickConnectedENS4_20JoystickDisconnectedENS4_10TouchBeganENS4_10TouchMovedENS4_10TouchEndedENS4_13SensorChangedEEE5indexB8ne180100Ev, symObjAddr: 0x167C, symBinAddr: 0x10000464C, symSize: 0x4C }
  - { offset: 0x1E7C9, size: 0x8, addend: 0x0, symName: __ZNSt3__116__variant_detail8__access9__variant9__get_altB8ne180100ILm5ERKNS_7variantIJN2sf5Event6ClosedENS6_7ResizedENS6_9FocusLostENS6_11FocusGainedENS6_11TextEnteredENS6_10KeyPressedENS6_11KeyReleasedENS6_18MouseWheelScrolledENS6_18MouseButtonPressedENS6_19MouseButtonReleasedENS6_10MouseMovedENS6_13MouseMovedRawENS6_12MouseEnteredENS6_9MouseLeftENS6_21JoystickButtonPressedENS6_22JoystickButtonReleasedENS6_13JoystickMovedENS6_17JoystickConnectedENS6_20JoystickDisconnectedENS6_10TouchBeganENS6_10TouchMovedENS6_10TouchEndedENS6_13SensorChangedEEEEEEODaOT0_, symObjAddr: 0x1808, symBinAddr: 0x1000047D8, symSize: 0x24 }
  - { offset: 0x1E800, size: 0x8, addend: 0x0, symName: __ZNSt3__116__variant_detail8__access6__base9__get_altB8ne180100ILm5ERKNS0_6__implIJN2sf5Event6ClosedENS6_7ResizedENS6_9FocusLostENS6_11FocusGainedENS6_11TextEnteredENS6_10KeyPressedENS6_11KeyReleasedENS6_18MouseWheelScrolledENS6_18MouseButtonPressedENS6_19MouseButtonReleasedENS6_10MouseMovedENS6_13MouseMovedRawENS6_12MouseEnteredENS6_9MouseLeftENS6_21JoystickButtonPressedENS6_22JoystickButtonReleasedENS6_13JoystickMovedENS6_17JoystickConnectedENS6_20JoystickDisconnectedENS6_10TouchBeganENS6_10TouchMovedENS6_10TouchEndedENS6_13SensorChangedEEEEEEODaOT0_, symObjAddr: 0x182C, symBinAddr: 0x1000047FC, symSize: 0x24 }
  - { offset: 0x1E837, size: 0x8, addend: 0x0, symName: __ZNSt3__116__variant_detail8__access7__union9__get_altB8ne180100IRKNS0_7__unionILNS0_6_TraitE0ELm0EJN2sf5Event6ClosedENS7_7ResizedENS7_9FocusLostENS7_11FocusGainedENS7_11TextEnteredENS7_10KeyPressedENS7_11KeyReleasedENS7_18MouseWheelScrolledENS7_18MouseButtonPressedENS7_19MouseButtonReleasedENS7_10MouseMovedENS7_13MouseMovedRawENS7_12MouseEnteredENS7_9MouseLeftENS7_21JoystickButtonPressedENS7_22JoystickButtonReleasedENS7_13JoystickMovedENS7_17JoystickConnectedENS7_20JoystickDisconnectedENS7_10TouchBeganENS7_10TouchMovedENS7_10TouchEndedENS7_13SensorChangedEEEELm5EEEODaOT_NS_16in_place_index_tIXT0_EEE, symObjAddr: 0x1850, symBinAddr: 0x100004820, symSize: 0x24 }
  - { offset: 0x1E87A, size: 0x8, addend: 0x0, symName: __ZNSt3__116__variant_detail8__access7__union9__get_altB8ne180100IRKNS0_7__unionILNS0_6_TraitE0ELm1EJN2sf5Event7ResizedENS7_9FocusLostENS7_11FocusGainedENS7_11TextEnteredENS7_10KeyPressedENS7_11KeyReleasedENS7_18MouseWheelScrolledENS7_18MouseButtonPressedENS7_19MouseButtonReleasedENS7_10MouseMovedENS7_13MouseMovedRawENS7_12MouseEnteredENS7_9MouseLeftENS7_21JoystickButtonPressedENS7_22JoystickButtonReleasedENS7_13JoystickMovedENS7_17JoystickConnectedENS7_20JoystickDisconnectedENS7_10TouchBeganENS7_10TouchMovedENS7_10TouchEndedENS7_13SensorChangedEEEELm4EEEODaOT_NS_16in_place_index_tIXT0_EEE, symObjAddr: 0x1874, symBinAddr: 0x100004844, symSize: 0x24 }
  - { offset: 0x1E8BD, size: 0x8, addend: 0x0, symName: __ZNSt3__116__variant_detail8__access7__union9__get_altB8ne180100IRKNS0_7__unionILNS0_6_TraitE0ELm2EJN2sf5Event9FocusLostENS7_11FocusGainedENS7_11TextEnteredENS7_10KeyPressedENS7_11KeyReleasedENS7_18MouseWheelScrolledENS7_18MouseButtonPressedENS7_19MouseButtonReleasedENS7_10MouseMovedENS7_13MouseMovedRawENS7_12MouseEnteredENS7_9MouseLeftENS7_21JoystickButtonPressedENS7_22JoystickButtonReleasedENS7_13JoystickMovedENS7_17JoystickConnectedENS7_20JoystickDisconnectedENS7_10TouchBeganENS7_10TouchMovedENS7_10TouchEndedENS7_13SensorChangedEEEELm3EEEODaOT_NS_16in_place_index_tIXT0_EEE, symObjAddr: 0x1898, symBinAddr: 0x100004868, symSize: 0x24 }
  - { offset: 0x1E900, size: 0x8, addend: 0x0, symName: __ZNSt3__116__variant_detail8__access7__union9__get_altB8ne180100IRKNS0_7__unionILNS0_6_TraitE0ELm3EJN2sf5Event11FocusGainedENS7_11TextEnteredENS7_10KeyPressedENS7_11KeyReleasedENS7_18MouseWheelScrolledENS7_18MouseButtonPressedENS7_19MouseButtonReleasedENS7_10MouseMovedENS7_13MouseMovedRawENS7_12MouseEnteredENS7_9MouseLeftENS7_21JoystickButtonPressedENS7_22JoystickButtonReleasedENS7_13JoystickMovedENS7_17JoystickConnectedENS7_20JoystickDisconnectedENS7_10TouchBeganENS7_10TouchMovedENS7_10TouchEndedENS7_13SensorChangedEEEELm2EEEODaOT_NS_16in_place_index_tIXT0_EEE, symObjAddr: 0x18BC, symBinAddr: 0x10000488C, symSize: 0x24 }
  - { offset: 0x1E943, size: 0x8, addend: 0x0, symName: __ZNSt3__116__variant_detail8__access7__union9__get_altB8ne180100IRKNS0_7__unionILNS0_6_TraitE0ELm4EJN2sf5Event11TextEnteredENS7_10KeyPressedENS7_11KeyReleasedENS7_18MouseWheelScrolledENS7_18MouseButtonPressedENS7_19MouseButtonReleasedENS7_10MouseMovedENS7_13MouseMovedRawENS7_12MouseEnteredENS7_9MouseLeftENS7_21JoystickButtonPressedENS7_22JoystickButtonReleasedENS7_13JoystickMovedENS7_17JoystickConnectedENS7_20JoystickDisconnectedENS7_10TouchBeganENS7_10TouchMovedENS7_10TouchEndedENS7_13SensorChangedEEEELm1EEEODaOT_NS_16in_place_index_tIXT0_EEE, symObjAddr: 0x18E0, symBinAddr: 0x1000048B0, symSize: 0x24 }
  - { offset: 0x1E986, size: 0x8, addend: 0x0, symName: __ZNSt3__116__variant_detail8__access7__union9__get_altB8ne180100IRKNS0_7__unionILNS0_6_TraitE0ELm5EJN2sf5Event10KeyPressedENS7_11KeyReleasedENS7_18MouseWheelScrolledENS7_18MouseButtonPressedENS7_19MouseButtonReleasedENS7_10MouseMovedENS7_13MouseMovedRawENS7_12MouseEnteredENS7_9MouseLeftENS7_21JoystickButtonPressedENS7_22JoystickButtonReleasedENS7_13JoystickMovedENS7_17JoystickConnectedENS7_20JoystickDisconnectedENS7_10TouchBeganENS7_10TouchMovedENS7_10TouchEndedENS7_13SensorChangedEEEEEEODaOT_NS_16in_place_index_tILm0EEE, symObjAddr: 0x1904, symBinAddr: 0x1000048D4, symSize: 0x14 }
  - { offset: 0x1E9CA, size: 0x8, addend: 0x0, symName: __ZNSt3__116__variant_detail8__access9__variant9__get_altB8ne180100ILm8ERKNS_7variantIJN2sf5Event6ClosedENS6_7ResizedENS6_9FocusLostENS6_11FocusGainedENS6_11TextEnteredENS6_10KeyPressedENS6_11KeyReleasedENS6_18MouseWheelScrolledENS6_18MouseButtonPressedENS6_19MouseButtonReleasedENS6_10MouseMovedENS6_13MouseMovedRawENS6_12MouseEnteredENS6_9MouseLeftENS6_21JoystickButtonPressedENS6_22JoystickButtonReleasedENS6_13JoystickMovedENS6_17JoystickConnectedENS6_20JoystickDisconnectedENS6_10TouchBeganENS6_10TouchMovedENS6_10TouchEndedENS6_13SensorChangedEEEEEEODaOT0_, symObjAddr: 0x1A00, symBinAddr: 0x1000049D0, symSize: 0x24 }
  - { offset: 0x1EA01, size: 0x8, addend: 0x0, symName: __ZNSt3__116__variant_detail8__access6__base9__get_altB8ne180100ILm8ERKNS0_6__implIJN2sf5Event6ClosedENS6_7ResizedENS6_9FocusLostENS6_11FocusGainedENS6_11TextEnteredENS6_10KeyPressedENS6_11KeyReleasedENS6_18MouseWheelScrolledENS6_18MouseButtonPressedENS6_19MouseButtonReleasedENS6_10MouseMovedENS6_13MouseMovedRawENS6_12MouseEnteredENS6_9MouseLeftENS6_21JoystickButtonPressedENS6_22JoystickButtonReleasedENS6_13JoystickMovedENS6_17JoystickConnectedENS6_20JoystickDisconnectedENS6_10TouchBeganENS6_10TouchMovedENS6_10TouchEndedENS6_13SensorChangedEEEEEEODaOT0_, symObjAddr: 0x1A24, symBinAddr: 0x1000049F4, symSize: 0x24 }
  - { offset: 0x1EA38, size: 0x8, addend: 0x0, symName: __ZNSt3__116__variant_detail8__access7__union9__get_altB8ne180100IRKNS0_7__unionILNS0_6_TraitE0ELm0EJN2sf5Event6ClosedENS7_7ResizedENS7_9FocusLostENS7_11FocusGainedENS7_11TextEnteredENS7_10KeyPressedENS7_11KeyReleasedENS7_18MouseWheelScrolledENS7_18MouseButtonPressedENS7_19MouseButtonReleasedENS7_10MouseMovedENS7_13MouseMovedRawENS7_12MouseEnteredENS7_9MouseLeftENS7_21JoystickButtonPressedENS7_22JoystickButtonReleasedENS7_13JoystickMovedENS7_17JoystickConnectedENS7_20JoystickDisconnectedENS7_10TouchBeganENS7_10TouchMovedENS7_10TouchEndedENS7_13SensorChangedEEEELm8EEEODaOT_NS_16in_place_index_tIXT0_EEE, symObjAddr: 0x1A48, symBinAddr: 0x100004A18, symSize: 0x24 }
  - { offset: 0x1EA7B, size: 0x8, addend: 0x0, symName: __ZNSt3__116__variant_detail8__access7__union9__get_altB8ne180100IRKNS0_7__unionILNS0_6_TraitE0ELm1EJN2sf5Event7ResizedENS7_9FocusLostENS7_11FocusGainedENS7_11TextEnteredENS7_10KeyPressedENS7_11KeyReleasedENS7_18MouseWheelScrolledENS7_18MouseButtonPressedENS7_19MouseButtonReleasedENS7_10MouseMovedENS7_13MouseMovedRawENS7_12MouseEnteredENS7_9MouseLeftENS7_21JoystickButtonPressedENS7_22JoystickButtonReleasedENS7_13JoystickMovedENS7_17JoystickConnectedENS7_20JoystickDisconnectedENS7_10TouchBeganENS7_10TouchMovedENS7_10TouchEndedENS7_13SensorChangedEEEELm7EEEODaOT_NS_16in_place_index_tIXT0_EEE, symObjAddr: 0x1A6C, symBinAddr: 0x100004A3C, symSize: 0x24 }
  - { offset: 0x1EABE, size: 0x8, addend: 0x0, symName: __ZNSt3__116__variant_detail8__access7__union9__get_altB8ne180100IRKNS0_7__unionILNS0_6_TraitE0ELm2EJN2sf5Event9FocusLostENS7_11FocusGainedENS7_11TextEnteredENS7_10KeyPressedENS7_11KeyReleasedENS7_18MouseWheelScrolledENS7_18MouseButtonPressedENS7_19MouseButtonReleasedENS7_10MouseMovedENS7_13MouseMovedRawENS7_12MouseEnteredENS7_9MouseLeftENS7_21JoystickButtonPressedENS7_22JoystickButtonReleasedENS7_13JoystickMovedENS7_17JoystickConnectedENS7_20JoystickDisconnectedENS7_10TouchBeganENS7_10TouchMovedENS7_10TouchEndedENS7_13SensorChangedEEEELm6EEEODaOT_NS_16in_place_index_tIXT0_EEE, symObjAddr: 0x1A90, symBinAddr: 0x100004A60, symSize: 0x24 }
  - { offset: 0x1EB01, size: 0x8, addend: 0x0, symName: __ZNSt3__116__variant_detail8__access7__union9__get_altB8ne180100IRKNS0_7__unionILNS0_6_TraitE0ELm3EJN2sf5Event11FocusGainedENS7_11TextEnteredENS7_10KeyPressedENS7_11KeyReleasedENS7_18MouseWheelScrolledENS7_18MouseButtonPressedENS7_19MouseButtonReleasedENS7_10MouseMovedENS7_13MouseMovedRawENS7_12MouseEnteredENS7_9MouseLeftENS7_21JoystickButtonPressedENS7_22JoystickButtonReleasedENS7_13JoystickMovedENS7_17JoystickConnectedENS7_20JoystickDisconnectedENS7_10TouchBeganENS7_10TouchMovedENS7_10TouchEndedENS7_13SensorChangedEEEELm5EEEODaOT_NS_16in_place_index_tIXT0_EEE, symObjAddr: 0x1AB4, symBinAddr: 0x100004A84, symSize: 0x24 }
  - { offset: 0x1EB44, size: 0x8, addend: 0x0, symName: __ZNSt3__116__variant_detail8__access7__union9__get_altB8ne180100IRKNS0_7__unionILNS0_6_TraitE0ELm4EJN2sf5Event11TextEnteredENS7_10KeyPressedENS7_11KeyReleasedENS7_18MouseWheelScrolledENS7_18MouseButtonPressedENS7_19MouseButtonReleasedENS7_10MouseMovedENS7_13MouseMovedRawENS7_12MouseEnteredENS7_9MouseLeftENS7_21JoystickButtonPressedENS7_22JoystickButtonReleasedENS7_13JoystickMovedENS7_17JoystickConnectedENS7_20JoystickDisconnectedENS7_10TouchBeganENS7_10TouchMovedENS7_10TouchEndedENS7_13SensorChangedEEEELm4EEEODaOT_NS_16in_place_index_tIXT0_EEE, symObjAddr: 0x1AD8, symBinAddr: 0x100004AA8, symSize: 0x24 }
  - { offset: 0x1EB87, size: 0x8, addend: 0x0, symName: __ZNSt3__116__variant_detail8__access7__union9__get_altB8ne180100IRKNS0_7__unionILNS0_6_TraitE0ELm5EJN2sf5Event10KeyPressedENS7_11KeyReleasedENS7_18MouseWheelScrolledENS7_18MouseButtonPressedENS7_19MouseButtonReleasedENS7_10MouseMovedENS7_13MouseMovedRawENS7_12MouseEnteredENS7_9MouseLeftENS7_21JoystickButtonPressedENS7_22JoystickButtonReleasedENS7_13JoystickMovedENS7_17JoystickConnectedENS7_20JoystickDisconnectedENS7_10TouchBeganENS7_10TouchMovedENS7_10TouchEndedENS7_13SensorChangedEEEELm3EEEODaOT_NS_16in_place_index_tIXT0_EEE, symObjAddr: 0x1AFC, symBinAddr: 0x100004ACC, symSize: 0x24 }
  - { offset: 0x1EBCA, size: 0x8, addend: 0x0, symName: __ZNSt3__116__variant_detail8__access7__union9__get_altB8ne180100IRKNS0_7__unionILNS0_6_TraitE0ELm6EJN2sf5Event11KeyReleasedENS7_18MouseWheelScrolledENS7_18MouseButtonPressedENS7_19MouseButtonReleasedENS7_10MouseMovedENS7_13MouseMovedRawENS7_12MouseEnteredENS7_9MouseLeftENS7_21JoystickButtonPressedENS7_22JoystickButtonReleasedENS7_13JoystickMovedENS7_17JoystickConnectedENS7_20JoystickDisconnectedENS7_10TouchBeganENS7_10TouchMovedENS7_10TouchEndedENS7_13SensorChangedEEEELm2EEEODaOT_NS_16in_place_index_tIXT0_EEE, symObjAddr: 0x1B20, symBinAddr: 0x100004AF0, symSize: 0x24 }
  - { offset: 0x1EC0D, size: 0x8, addend: 0x0, symName: __ZNSt3__116__variant_detail8__access7__union9__get_altB8ne180100IRKNS0_7__unionILNS0_6_TraitE0ELm7EJN2sf5Event18MouseWheelScrolledENS7_18MouseButtonPressedENS7_19MouseButtonReleasedENS7_10MouseMovedENS7_13MouseMovedRawENS7_12MouseEnteredENS7_9MouseLeftENS7_21JoystickButtonPressedENS7_22JoystickButtonReleasedENS7_13JoystickMovedENS7_17JoystickConnectedENS7_20JoystickDisconnectedENS7_10TouchBeganENS7_10TouchMovedENS7_10TouchEndedENS7_13SensorChangedEEEELm1EEEODaOT_NS_16in_place_index_tIXT0_EEE, symObjAddr: 0x1B44, symBinAddr: 0x100004B14, symSize: 0x24 }
  - { offset: 0x1EC50, size: 0x8, addend: 0x0, symName: __ZNSt3__116__variant_detail8__access7__union9__get_altB8ne180100IRKNS0_7__unionILNS0_6_TraitE0ELm8EJN2sf5Event18MouseButtonPressedENS7_19MouseButtonReleasedENS7_10MouseMovedENS7_13MouseMovedRawENS7_12MouseEnteredENS7_9MouseLeftENS7_21JoystickButtonPressedENS7_22JoystickButtonReleasedENS7_13JoystickMovedENS7_17JoystickConnectedENS7_20JoystickDisconnectedENS7_10TouchBeganENS7_10TouchMovedENS7_10TouchEndedENS7_13SensorChangedEEEEEEODaOT_NS_16in_place_index_tILm0EEE, symObjAddr: 0x1B68, symBinAddr: 0x100004B38, symSize: 0x14 }
  - { offset: 0x1EC94, size: 0x8, addend: 0x0, symName: __ZNSt3__116__variant_detail8__access9__variant9__get_altB8ne180100ILm10ERKNS_7variantIJN2sf5Event6ClosedENS6_7ResizedENS6_9FocusLostENS6_11FocusGainedENS6_11TextEnteredENS6_10KeyPressedENS6_11KeyReleasedENS6_18MouseWheelScrolledENS6_18MouseButtonPressedENS6_19MouseButtonReleasedENS6_10MouseMovedENS6_13MouseMovedRawENS6_12MouseEnteredENS6_9MouseLeftENS6_21JoystickButtonPressedENS6_22JoystickButtonReleasedENS6_13JoystickMovedENS6_17JoystickConnectedENS6_20JoystickDisconnectedENS6_10TouchBeganENS6_10TouchMovedENS6_10TouchEndedENS6_13SensorChangedEEEEEEODaOT0_, symObjAddr: 0x1C64, symBinAddr: 0x100004C34, symSize: 0x24 }
  - { offset: 0x1ECCB, size: 0x8, addend: 0x0, symName: __ZNSt3__116__variant_detail8__access6__base9__get_altB8ne180100ILm10ERKNS0_6__implIJN2sf5Event6ClosedENS6_7ResizedENS6_9FocusLostENS6_11FocusGainedENS6_11TextEnteredENS6_10KeyPressedENS6_11KeyReleasedENS6_18MouseWheelScrolledENS6_18MouseButtonPressedENS6_19MouseButtonReleasedENS6_10MouseMovedENS6_13MouseMovedRawENS6_12MouseEnteredENS6_9MouseLeftENS6_21JoystickButtonPressedENS6_22JoystickButtonReleasedENS6_13JoystickMovedENS6_17JoystickConnectedENS6_20JoystickDisconnectedENS6_10TouchBeganENS6_10TouchMovedENS6_10TouchEndedENS6_13SensorChangedEEEEEEODaOT0_, symObjAddr: 0x1C88, symBinAddr: 0x100004C58, symSize: 0x24 }
  - { offset: 0x1ED02, size: 0x8, addend: 0x0, symName: __ZNSt3__116__variant_detail8__access7__union9__get_altB8ne180100IRKNS0_7__unionILNS0_6_TraitE0ELm0EJN2sf5Event6ClosedENS7_7ResizedENS7_9FocusLostENS7_11FocusGainedENS7_11TextEnteredENS7_10KeyPressedENS7_11KeyReleasedENS7_18MouseWheelScrolledENS7_18MouseButtonPressedENS7_19MouseButtonReleasedENS7_10MouseMovedENS7_13MouseMovedRawENS7_12MouseEnteredENS7_9MouseLeftENS7_21JoystickButtonPressedENS7_22JoystickButtonReleasedENS7_13JoystickMovedENS7_17JoystickConnectedENS7_20JoystickDisconnectedENS7_10TouchBeganENS7_10TouchMovedENS7_10TouchEndedENS7_13SensorChangedEEEELm10EEEODaOT_NS_16in_place_index_tIXT0_EEE, symObjAddr: 0x1CAC, symBinAddr: 0x100004C7C, symSize: 0x24 }
  - { offset: 0x1ED45, size: 0x8, addend: 0x0, symName: __ZNSt3__116__variant_detail8__access7__union9__get_altB8ne180100IRKNS0_7__unionILNS0_6_TraitE0ELm1EJN2sf5Event7ResizedENS7_9FocusLostENS7_11FocusGainedENS7_11TextEnteredENS7_10KeyPressedENS7_11KeyReleasedENS7_18MouseWheelScrolledENS7_18MouseButtonPressedENS7_19MouseButtonReleasedENS7_10MouseMovedENS7_13MouseMovedRawENS7_12MouseEnteredENS7_9MouseLeftENS7_21JoystickButtonPressedENS7_22JoystickButtonReleasedENS7_13JoystickMovedENS7_17JoystickConnectedENS7_20JoystickDisconnectedENS7_10TouchBeganENS7_10TouchMovedENS7_10TouchEndedENS7_13SensorChangedEEEELm9EEEODaOT_NS_16in_place_index_tIXT0_EEE, symObjAddr: 0x1CD0, symBinAddr: 0x100004CA0, symSize: 0x24 }
  - { offset: 0x1ED88, size: 0x8, addend: 0x0, symName: __ZNSt3__116__variant_detail8__access7__union9__get_altB8ne180100IRKNS0_7__unionILNS0_6_TraitE0ELm2EJN2sf5Event9FocusLostENS7_11FocusGainedENS7_11TextEnteredENS7_10KeyPressedENS7_11KeyReleasedENS7_18MouseWheelScrolledENS7_18MouseButtonPressedENS7_19MouseButtonReleasedENS7_10MouseMovedENS7_13MouseMovedRawENS7_12MouseEnteredENS7_9MouseLeftENS7_21JoystickButtonPressedENS7_22JoystickButtonReleasedENS7_13JoystickMovedENS7_17JoystickConnectedENS7_20JoystickDisconnectedENS7_10TouchBeganENS7_10TouchMovedENS7_10TouchEndedENS7_13SensorChangedEEEELm8EEEODaOT_NS_16in_place_index_tIXT0_EEE, symObjAddr: 0x1CF4, symBinAddr: 0x100004CC4, symSize: 0x24 }
  - { offset: 0x1EDCB, size: 0x8, addend: 0x0, symName: __ZNSt3__116__variant_detail8__access7__union9__get_altB8ne180100IRKNS0_7__unionILNS0_6_TraitE0ELm3EJN2sf5Event11FocusGainedENS7_11TextEnteredENS7_10KeyPressedENS7_11KeyReleasedENS7_18MouseWheelScrolledENS7_18MouseButtonPressedENS7_19MouseButtonReleasedENS7_10MouseMovedENS7_13MouseMovedRawENS7_12MouseEnteredENS7_9MouseLeftENS7_21JoystickButtonPressedENS7_22JoystickButtonReleasedENS7_13JoystickMovedENS7_17JoystickConnectedENS7_20JoystickDisconnectedENS7_10TouchBeganENS7_10TouchMovedENS7_10TouchEndedENS7_13SensorChangedEEEELm7EEEODaOT_NS_16in_place_index_tIXT0_EEE, symObjAddr: 0x1D18, symBinAddr: 0x100004CE8, symSize: 0x24 }
  - { offset: 0x1EE0E, size: 0x8, addend: 0x0, symName: __ZNSt3__116__variant_detail8__access7__union9__get_altB8ne180100IRKNS0_7__unionILNS0_6_TraitE0ELm4EJN2sf5Event11TextEnteredENS7_10KeyPressedENS7_11KeyReleasedENS7_18MouseWheelScrolledENS7_18MouseButtonPressedENS7_19MouseButtonReleasedENS7_10MouseMovedENS7_13MouseMovedRawENS7_12MouseEnteredENS7_9MouseLeftENS7_21JoystickButtonPressedENS7_22JoystickButtonReleasedENS7_13JoystickMovedENS7_17JoystickConnectedENS7_20JoystickDisconnectedENS7_10TouchBeganENS7_10TouchMovedENS7_10TouchEndedENS7_13SensorChangedEEEELm6EEEODaOT_NS_16in_place_index_tIXT0_EEE, symObjAddr: 0x1D3C, symBinAddr: 0x100004D0C, symSize: 0x24 }
  - { offset: 0x1EE51, size: 0x8, addend: 0x0, symName: __ZNSt3__116__variant_detail8__access7__union9__get_altB8ne180100IRKNS0_7__unionILNS0_6_TraitE0ELm5EJN2sf5Event10KeyPressedENS7_11KeyReleasedENS7_18MouseWheelScrolledENS7_18MouseButtonPressedENS7_19MouseButtonReleasedENS7_10MouseMovedENS7_13MouseMovedRawENS7_12MouseEnteredENS7_9MouseLeftENS7_21JoystickButtonPressedENS7_22JoystickButtonReleasedENS7_13JoystickMovedENS7_17JoystickConnectedENS7_20JoystickDisconnectedENS7_10TouchBeganENS7_10TouchMovedENS7_10TouchEndedENS7_13SensorChangedEEEELm5EEEODaOT_NS_16in_place_index_tIXT0_EEE, symObjAddr: 0x1D60, symBinAddr: 0x100004D30, symSize: 0x24 }
  - { offset: 0x1EE94, size: 0x8, addend: 0x0, symName: __ZNSt3__116__variant_detail8__access7__union9__get_altB8ne180100IRKNS0_7__unionILNS0_6_TraitE0ELm6EJN2sf5Event11KeyReleasedENS7_18MouseWheelScrolledENS7_18MouseButtonPressedENS7_19MouseButtonReleasedENS7_10MouseMovedENS7_13MouseMovedRawENS7_12MouseEnteredENS7_9MouseLeftENS7_21JoystickButtonPressedENS7_22JoystickButtonReleasedENS7_13JoystickMovedENS7_17JoystickConnectedENS7_20JoystickDisconnectedENS7_10TouchBeganENS7_10TouchMovedENS7_10TouchEndedENS7_13SensorChangedEEEELm4EEEODaOT_NS_16in_place_index_tIXT0_EEE, symObjAddr: 0x1D84, symBinAddr: 0x100004D54, symSize: 0x24 }
  - { offset: 0x1EED7, size: 0x8, addend: 0x0, symName: __ZNSt3__116__variant_detail8__access7__union9__get_altB8ne180100IRKNS0_7__unionILNS0_6_TraitE0ELm7EJN2sf5Event18MouseWheelScrolledENS7_18MouseButtonPressedENS7_19MouseButtonReleasedENS7_10MouseMovedENS7_13MouseMovedRawENS7_12MouseEnteredENS7_9MouseLeftENS7_21JoystickButtonPressedENS7_22JoystickButtonReleasedENS7_13JoystickMovedENS7_17JoystickConnectedENS7_20JoystickDisconnectedENS7_10TouchBeganENS7_10TouchMovedENS7_10TouchEndedENS7_13SensorChangedEEEELm3EEEODaOT_NS_16in_place_index_tIXT0_EEE, symObjAddr: 0x1DA8, symBinAddr: 0x100004D78, symSize: 0x24 }
  - { offset: 0x1EF1A, size: 0x8, addend: 0x0, symName: __ZNSt3__116__variant_detail8__access7__union9__get_altB8ne180100IRKNS0_7__unionILNS0_6_TraitE0ELm8EJN2sf5Event18MouseButtonPressedENS7_19MouseButtonReleasedENS7_10MouseMovedENS7_13MouseMovedRawENS7_12MouseEnteredENS7_9MouseLeftENS7_21JoystickButtonPressedENS7_22JoystickButtonReleasedENS7_13JoystickMovedENS7_17JoystickConnectedENS7_20JoystickDisconnectedENS7_10TouchBeganENS7_10TouchMovedENS7_10TouchEndedENS7_13SensorChangedEEEELm2EEEODaOT_NS_16in_place_index_tIXT0_EEE, symObjAddr: 0x1DCC, symBinAddr: 0x100004D9C, symSize: 0x24 }
  - { offset: 0x1EF5D, size: 0x8, addend: 0x0, symName: __ZNSt3__116__variant_detail8__access7__union9__get_altB8ne180100IRKNS0_7__unionILNS0_6_TraitE0ELm9EJN2sf5Event19MouseButtonReleasedENS7_10MouseMovedENS7_13MouseMovedRawENS7_12MouseEnteredENS7_9MouseLeftENS7_21JoystickButtonPressedENS7_22JoystickButtonReleasedENS7_13JoystickMovedENS7_17JoystickConnectedENS7_20JoystickDisconnectedENS7_10TouchBeganENS7_10TouchMovedENS7_10TouchEndedENS7_13SensorChangedEEEELm1EEEODaOT_NS_16in_place_index_tIXT0_EEE, symObjAddr: 0x1DF0, symBinAddr: 0x100004DC0, symSize: 0x24 }
  - { offset: 0x1EFA0, size: 0x8, addend: 0x0, symName: __ZNSt3__116__variant_detail8__access7__union9__get_altB8ne180100IRKNS0_7__unionILNS0_6_TraitE0ELm10EJN2sf5Event10MouseMovedENS7_13MouseMovedRawENS7_12MouseEnteredENS7_9MouseLeftENS7_21JoystickButtonPressedENS7_22JoystickButtonReleasedENS7_13JoystickMovedENS7_17JoystickConnectedENS7_20JoystickDisconnectedENS7_10TouchBeganENS7_10TouchMovedENS7_10TouchEndedENS7_13SensorChangedEEEEEEODaOT_NS_16in_place_index_tILm0EEE, symObjAddr: 0x1E14, symBinAddr: 0x100004DE4, symSize: 0x14 }
  - { offset: 0x22B4A, size: 0x8, addend: 0x0, symName: __ZN2sf7degreesEf, symObjAddr: 0x1E4, symBinAddr: 0x100004FA0, symSize: 0x3C }
  - { offset: 0x30015, size: 0x8, addend: 0x0, symName: __ZNSt3__124__put_character_sequenceB8ne180100IcNS_11char_traitsIcEEEERNS_13basic_ostreamIT_T0_EES7_PKS4_m, symObjAddr: 0x2604, symBinAddr: 0x100006C70, symSize: 0x1EC }
  - { offset: 0x3109E, size: 0x8, addend: 0x0, symName: __ZNSt3__15clampB8ne180100IiEERKT_S3_S3_S3_, symObjAddr: 0x5C0, symBinAddr: 0x100005304, symSize: 0x34 }
  - { offset: 0x310EF, size: 0x8, addend: 0x0, symName: __ZNSt3__1lsB8ne180100INS_11char_traitsIcEEEERNS_13basic_ostreamIcT_EES6_PKc, symObjAddr: 0x77C, symBinAddr: 0x1000054C0, symSize: 0x48 }
  - { offset: 0x31135, size: 0x8, addend: 0x0, symName: __ZNSt3__15clampB8ne180100IiNS_6__lessIvvEEEERKT_S5_S5_S5_T0_, symObjAddr: 0x1194, symBinAddr: 0x100005800, symSize: 0x88 }
  - { offset: 0x31215, size: 0x8, addend: 0x0, symName: __ZNSt3__122__make_exception_guardB8ne180100INS_6vectorIN2sf6VertexENS_9allocatorIS3_EEE16__destroy_vectorEEENS_28__exception_guard_exceptionsIT_EES9_, symObjAddr: 0x184C, symBinAddr: 0x100005EB8, symSize: 0x40 }
  - { offset: 0x3124A, size: 0x8, addend: 0x0, symName: __ZNSt3__119__allocate_at_leastB8ne180100INS_9allocatorIN2sf6VertexEEEEENS_19__allocation_resultINS_16allocator_traitsIT_E7pointerEEERS7_m, symObjAddr: 0x1AE8, symBinAddr: 0x100006154, symSize: 0x40 }
  - { offset: 0x3128D, size: 0x8, addend: 0x0, symName: __ZNSt3__13minB8ne180100ImEERKT_S3_S3_, symObjAddr: 0x1B64, symBinAddr: 0x1000061D0, symSize: 0x2C }
  - { offset: 0x314BA, size: 0x8, addend: 0x0, symName: __ZNSt3__13minB8ne180100ImNS_6__lessIvvEEEERKT_S5_S5_T0_, symObjAddr: 0x1BC8, symBinAddr: 0x100006234, symSize: 0x54 }
  - { offset: 0x31515, size: 0x8, addend: 0x0, symName: __ZNSt3__120__throw_length_errorB8ne180100EPKc, symObjAddr: 0x1C70, symBinAddr: 0x1000062DC, symSize: 0x64 }
  - { offset: 0x3153D, size: 0x8, addend: 0x0, symName: __ZNSt3__117__libcpp_allocateB8ne180100Emm, symObjAddr: 0x1DDC, symBinAddr: 0x100006448, symSize: 0x60 }
  - { offset: 0x31597, size: 0x8, addend: 0x0, symName: __ZNSt3__121__libcpp_operator_newB8ne180100IJmSt11align_val_tEEEPvDpT_, symObjAddr: 0x1E3C, symBinAddr: 0x1000064A8, symSize: 0x2C }
  - { offset: 0x315E4, size: 0x8, addend: 0x0, symName: __ZNSt3__121__libcpp_operator_newB8ne180100IJmEEEPvDpT_, symObjAddr: 0x1E68, symBinAddr: 0x1000064D4, symSize: 0x24 }
  - { offset: 0x3161D, size: 0x8, addend: 0x0, symName: __ZNSt3__130__uninitialized_allocator_copyB8ne180100INS_9allocatorIN2sf6VertexEEEPS3_S5_S5_EET2_RT_T0_T1_S6_, symObjAddr: 0x1F00, symBinAddr: 0x10000656C, symSize: 0x80 }
  - { offset: 0x316BA, size: 0x8, addend: 0x0, symName: __ZNSt3__114__unwrap_rangeB8ne180100IPN2sf6VertexES3_EENS_4pairIT0_S5_EET_S7_, symObjAddr: 0x1FF8, symBinAddr: 0x100006664, symSize: 0x60 }
  - { offset: 0x31706, size: 0x8, addend: 0x0, symName: __ZNSt3__135__uninitialized_allocator_copy_implB8ne180100INS_9allocatorIN2sf6VertexEEES3_S3_S3_LPv0EEEPT2_RT_PT0_SB_S7_, symObjAddr: 0x2058, symBinAddr: 0x1000066C4, symSize: 0x38 }
  - { offset: 0x31789, size: 0x8, addend: 0x0, symName: __ZNSt3__113__unwrap_iterB8ne180100IPN2sf6VertexENS_18__unwrap_iter_implIS3_Lb1EEELi0EEEDTclsrT0_8__unwrapclsr3stdE7declvalIT_EEEES7_, symObjAddr: 0x2090, symBinAddr: 0x1000066FC, symSize: 0x24 }
  - { offset: 0x317CD, size: 0x8, addend: 0x0, symName: __ZNSt3__113__rewrap_iterB8ne180100IPN2sf6VertexES3_NS_18__unwrap_iter_implIS3_Lb1EEEEET_S6_T0_, symObjAddr: 0x20B4, symBinAddr: 0x100006720, symSize: 0x3C }
  - { offset: 0x31822, size: 0x8, addend: 0x0, symName: __ZNSt3__19make_pairB8ne180100IPN2sf6VertexES3_EENS_4pairINS_18__unwrap_ref_decayIT_E4typeENS5_IT0_E4typeEEEOS6_OS9_, symObjAddr: 0x20F0, symBinAddr: 0x10000675C, symSize: 0x38 }
  - { offset: 0x31974, size: 0x8, addend: 0x0, symName: __ZNSt3__14copyB8ne180100IPN2sf6VertexES3_EET0_T_S5_S4_, symObjAddr: 0x2198, symBinAddr: 0x100006804, symSize: 0x40 }
  - { offset: 0x319CE, size: 0x8, addend: 0x0, symName: __ZNSt3__16__copyB8ne180100INS_17_ClassicAlgPolicyEPN2sf6VertexES4_S4_EENS_4pairIT0_T2_EES6_T1_S7_, symObjAddr: 0x21D8, symBinAddr: 0x100006844, symSize: 0x44 }
  - { offset: 0x31A3A, size: 0x8, addend: 0x0, symName: __ZNSt3__123__dispatch_copy_or_moveB8ne180100INS_17_ClassicAlgPolicyENS_11__copy_loopIS1_EENS_14__copy_trivialEPN2sf6VertexES7_S7_EENS_4pairIT2_T4_EES9_T3_SA_, symObjAddr: 0x221C, symBinAddr: 0x100006888, symSize: 0x44 }
  - { offset: 0x31AB8, size: 0x8, addend: 0x0, symName: __ZNSt3__121__unwrap_and_dispatchB8ne180100INS_10__overloadINS_11__copy_loopINS_17_ClassicAlgPolicyEEENS_14__copy_trivialEEEPN2sf6VertexES9_S9_Li0EEENS_4pairIT0_T2_EESB_T1_SC_, symObjAddr: 0x2260, symBinAddr: 0x1000068CC, symSize: 0xB4 }
  - { offset: 0x31B8E, size: 0x8, addend: 0x0, symName: __ZNSt3__114__rewrap_rangeB8ne180100IPN2sf6VertexES3_EET_S4_T0_, symObjAddr: 0x235C, symBinAddr: 0x1000069C8, symSize: 0x2C }
  - { offset: 0x31BDA, size: 0x8, addend: 0x0, symName: __ZNSt3__119__copy_trivial_implB8ne180100IN2sf6VertexES2_EENS_4pairIPT_PT0_EES5_S5_S7_, symObjAddr: 0x2388, symBinAddr: 0x1000069F4, symSize: 0x88 }
  - { offset: 0x31C43, size: 0x8, addend: 0x0, symName: __ZNSt3__119__constexpr_memmoveB8ne180100IN2sf6VertexES2_Li0EEEPT_S4_PT0_NS_15__element_countE, symObjAddr: 0x2410, symBinAddr: 0x100006A7C, symSize: 0x68 }
  - { offset: 0x31CB2, size: 0x8, addend: 0x0, symName: __ZNSt3__19make_pairB8ne180100IRPN2sf6VertexES3_EENS_4pairINS_18__unwrap_ref_decayIT_E4typeENS6_IT0_E4typeEEEOS7_OSA_, symObjAddr: 0x2478, symBinAddr: 0x100006AE4, symSize: 0x38 }
  - { offset: 0x31D54, size: 0x8, addend: 0x0, symName: __ZNSt3__116__pad_and_outputB8ne180100IcNS_11char_traitsIcEEEENS_19ostreambuf_iteratorIT_T0_EES6_PKS4_S8_S8_RNS_8ios_baseES4_, symObjAddr: 0x2840, symBinAddr: 0x100006EAC, symSize: 0x240 }
  - { offset: 0x31E24, size: 0x8, addend: 0x0, symName: __ZNSt3__112__to_addressB8ne180100IcEEPT_S2_, symObjAddr: 0x2DA8, symBinAddr: 0x100007414, symSize: 0x14 }
  - { offset: 0x31E8C, size: 0x8, addend: 0x0, symName: __ZNSt3__19use_facetB8ne180100INS_5ctypeIcEEEERKT_RKNS_6localeE, symObjAddr: 0x3060, symBinAddr: 0x1000076CC, symSize: 0x2C }
  - { offset: 0x3235B, size: 0x8, addend: 0x0, symName: __ZNSt3__118__constexpr_strlenB8ne180100EPKc, symObjAddr: 0x30F8, symBinAddr: 0x100007764, symSize: 0x24 }
  - { offset: 0x332AA, size: 0x8, addend: 0x0, symName: __ZSt28__throw_bad_array_new_lengthB8ne180100v, symObjAddr: 0x1DA8, symBinAddr: 0x100006414, symSize: 0x34 }
  - { offset: 0x340FD, size: 0x8, addend: 0x0, symName: __ZN4BallC2EfffffN2sf5ColorE, symObjAddr: 0x0, symBinAddr: 0x100004DF8, symSize: 0x17C }
  - { offset: 0x3417D, size: 0x8, addend: 0x0, symName: __ZN2sf5ColorC1Ev, symObjAddr: 0x17C, symBinAddr: 0x100004F74, symSize: 0x2C }
  - { offset: 0x341A7, size: 0x8, addend: 0x0, symName: __ZN4BallC1EfffffN2sf5ColorE, symObjAddr: 0x24C, symBinAddr: 0x100004FDC, symSize: 0x6C }
  - { offset: 0x34227, size: 0x8, addend: 0x0, symName: __ZN4Ball4moveEff, symObjAddr: 0x2B8, symBinAddr: 0x100005048, symSize: 0x70 }
  - { offset: 0x3426B, size: 0x8, addend: 0x0, symName: __ZN4Ball11setPositionEff, symObjAddr: 0x328, symBinAddr: 0x1000050B8, symSize: 0x60 }
  - { offset: 0x342AF, size: 0x8, addend: 0x0, symName: __ZN4Ball11setVelocityEff, symObjAddr: 0x388, symBinAddr: 0x100005118, symSize: 0x2C }
  - { offset: 0x342F3, size: 0x8, addend: 0x0, symName: __ZN4Ball14changeVelocityEff, symObjAddr: 0x3B4, symBinAddr: 0x100005144, symSize: 0x3C }
  - { offset: 0x34337, size: 0x8, addend: 0x0, symName: __ZN4Ball9setColourEjjj, symObjAddr: 0x3F0, symBinAddr: 0x100005180, symSize: 0x88 }
  - { offset: 0x34389, size: 0x8, addend: 0x0, symName: __ZN4Ball12changeColourEiii, symObjAddr: 0x4C4, symBinAddr: 0x100005208, symSize: 0xFC }
  - { offset: 0x343DB, size: 0x8, addend: 0x0, symName: __ZN4Ball7getBallEv, symObjAddr: 0x5F4, symBinAddr: 0x100005338, symSize: 0x38 }
  - { offset: 0x34409, size: 0x8, addend: 0x0, symName: __ZN2sf11CircleShapeC1ERKS0_, symObjAddr: 0x62C, symBinAddr: 0x100005370, symSize: 0x34 }
  - { offset: 0x3443E, size: 0x8, addend: 0x0, symName: __ZN4Ball6updateEf, symObjAddr: 0x660, symBinAddr: 0x1000053A4, symSize: 0x11C }
  - { offset: 0x34474, size: 0x8, addend: 0x0, symName: __ZN4Ball7collideEffff, symObjAddr: 0x7C4, symBinAddr: 0x100005508, symSize: 0x264 }
  - { offset: 0x344D3, size: 0x8, addend: 0x0, symName: __Z3absB8ne180100f, symObjAddr: 0xA28, symBinAddr: 0x10000576C, symSize: 0x18 }
  - { offset: 0x34500, size: 0x8, addend: 0x0, symName: __ZN2sf5ColorC2Ev, symObjAddr: 0xA40, symBinAddr: 0x100005784, symSize: 0x28 }
  - { offset: 0x3452A, size: 0x8, addend: 0x0, symName: __ZN2sf5AngleC1Ef, symObjAddr: 0xA94, symBinAddr: 0x1000057AC, symSize: 0x34 }
  - { offset: 0x34564, size: 0x8, addend: 0x0, symName: __ZN2sf5AngleC2Ef, symObjAddr: 0xAC8, symBinAddr: 0x1000057E0, symSize: 0x20 }
  - { offset: 0x345A8, size: 0x8, addend: 0x0, symName: __ZNKSt3__16__lessIvvEclB8ne180100IiiEEbRKT_RKT0_, symObjAddr: 0x121C, symBinAddr: 0x100005888, symSize: 0x34 }
  - { offset: 0x345FC, size: 0x8, addend: 0x0, symName: __ZN2sf11CircleShapeC2ERKS0_, symObjAddr: 0x1250, symBinAddr: 0x1000058BC, symSize: 0x60 }
  - { offset: 0x34637, size: 0x8, addend: 0x0, symName: __ZN2sf5ShapeC2ERKS0_, symObjAddr: 0x12B0, symBinAddr: 0x10000591C, symSize: 0x11C }
  - { offset: 0x3466C, size: 0x8, addend: 0x0, symName: __ZN2sf8DrawableC2ERKS0_, symObjAddr: 0x13CC, symBinAddr: 0x100005A38, symSize: 0x28 }
  - { offset: 0x346A7, size: 0x8, addend: 0x0, symName: __ZN2sf13TransformableC2ERKS0_, symObjAddr: 0x13F4, symBinAddr: 0x100005A60, symSize: 0x50 }
  - { offset: 0x346E2, size: 0x8, addend: 0x0, symName: __ZN2sf11VertexArrayC1ERKS0_, symObjAddr: 0x1444, symBinAddr: 0x100005AB0, symSize: 0x34 }
  - { offset: 0x34717, size: 0x8, addend: 0x0, symName: __ZN2sf8DrawableD1Ev, symObjAddr: 0x1478, symBinAddr: 0x100005AE4, symSize: 0x14 }
  - { offset: 0x34741, size: 0x8, addend: 0x0, symName: __ZN2sf8DrawableD0Ev, symObjAddr: 0x148C, symBinAddr: 0x100005AF8, symSize: 0xC }
  - { offset: 0x3476B, size: 0x8, addend: 0x0, symName: __ZN2sf13TransformableD1Ev, symObjAddr: 0x1498, symBinAddr: 0x100005B04, symSize: 0x2C }
  - { offset: 0x34795, size: 0x8, addend: 0x0, symName: __ZN2sf13TransformableD0Ev, symObjAddr: 0x14C4, symBinAddr: 0x100005B30, symSize: 0x30 }
  - { offset: 0x347BF, size: 0x8, addend: 0x0, symName: __ZN2sf11VertexArrayC2ERKS0_, symObjAddr: 0x14F4, symBinAddr: 0x100005B60, symSize: 0x8C }
  - { offset: 0x347F4, size: 0x8, addend: 0x0, symName: __ZNSt3__16vectorIN2sf6VertexENS_9allocatorIS2_EEEC1ERKS5_, symObjAddr: 0x1580, symBinAddr: 0x100005BEC, symSize: 0x34 }
  - { offset: 0x3482F, size: 0x8, addend: 0x0, symName: __ZNSt3__16vectorIN2sf6VertexENS_9allocatorIS2_EEEC2ERKS5_, symObjAddr: 0x15B4, symBinAddr: 0x100005C20, symSize: 0x94 }
  - { offset: 0x34875, size: 0x8, addend: 0x0, symName: __ZNSt3__116allocator_traitsINS_9allocatorIN2sf6VertexEEEE37select_on_container_copy_constructionB8ne180100IS4_vvEES4_RKS4_, symObjAddr: 0x1648, symBinAddr: 0x100005CB4, symSize: 0x10 }
  - { offset: 0x348A4, size: 0x8, addend: 0x0, symName: __ZNKSt3__16vectorIN2sf6VertexENS_9allocatorIS2_EEE7__allocB8ne180100Ev, symObjAddr: 0x1658, symBinAddr: 0x100005CC4, symSize: 0x28 }
  - { offset: 0x348D6, size: 0x8, addend: 0x0, symName: __ZNSt3__117__compressed_pairIPN2sf6VertexENS_9allocatorIS2_EEEC1B8ne180100IDnS5_EEOT_OT0_, symObjAddr: 0x1680, symBinAddr: 0x100005CEC, symSize: 0x3C }
  - { offset: 0x3492E, size: 0x8, addend: 0x0, symName: __ZNSt3__16vectorIN2sf6VertexENS_9allocatorIS2_EEE16__init_with_sizeB8ne180100IPS2_S7_EEvT_T0_m, symObjAddr: 0x16BC, symBinAddr: 0x100005D28, symSize: 0xB8 }
  - { offset: 0x349A2, size: 0x8, addend: 0x0, symName: __ZNKSt3__16vectorIN2sf6VertexENS_9allocatorIS2_EEE4sizeB8ne180100Ev, symObjAddr: 0x1774, symBinAddr: 0x100005DE0, symSize: 0x28 }
  - { offset: 0x349C8, size: 0x8, addend: 0x0, symName: __ZNKSt3__117__compressed_pairIPN2sf6VertexENS_9allocatorIS2_EEE6secondB8ne180100Ev, symObjAddr: 0x179C, symBinAddr: 0x100005E08, symSize: 0x24 }
  - { offset: 0x349EE, size: 0x8, addend: 0x0, symName: __ZNKSt3__122__compressed_pair_elemINS_9allocatorIN2sf6VertexEEELi1ELb1EE5__getB8ne180100Ev, symObjAddr: 0x17C0, symBinAddr: 0x100005E2C, symSize: 0x14 }
  - { offset: 0x34A14, size: 0x8, addend: 0x0, symName: __ZNSt3__117__compressed_pairIPN2sf6VertexENS_9allocatorIS2_EEEC2B8ne180100IDnS5_EEOT_OT0_, symObjAddr: 0x17D4, symBinAddr: 0x100005E40, symSize: 0x44 }
  - { offset: 0x34A6C, size: 0x8, addend: 0x0, symName: __ZNSt3__122__compressed_pair_elemIPN2sf6VertexELi0ELb0EEC2B8ne180100IDnvEEOT_, symObjAddr: 0x1818, symBinAddr: 0x100005E84, symSize: 0x1C }
  - { offset: 0x34AAE, size: 0x8, addend: 0x0, symName: __ZNSt3__122__compressed_pair_elemINS_9allocatorIN2sf6VertexEEELi1ELb1EEC2B8ne180100IS4_vEEOT_, symObjAddr: 0x1834, symBinAddr: 0x100005EA0, symSize: 0x18 }
  - { offset: 0x34AF0, size: 0x8, addend: 0x0, symName: __ZNSt3__16vectorIN2sf6VertexENS_9allocatorIS2_EEE11__vallocateB8ne180100Em, symObjAddr: 0x188C, symBinAddr: 0x100005EF8, symSize: 0xB4 }
  - { offset: 0x34B34, size: 0x8, addend: 0x0, symName: __ZNSt3__16vectorIN2sf6VertexENS_9allocatorIS2_EEE18__construct_at_endIPS2_S7_EEvT_T0_m, symObjAddr: 0x1940, symBinAddr: 0x100005FAC, symSize: 0x8C }
  - { offset: 0x34BAA, size: 0x8, addend: 0x0, symName: __ZNSt3__128__exception_guard_exceptionsINS_6vectorIN2sf6VertexENS_9allocatorIS3_EEE16__destroy_vectorEE10__completeB8ne180100Ev, symObjAddr: 0x19CC, symBinAddr: 0x100006038, symSize: 0x1C }
  - { offset: 0x34BD0, size: 0x8, addend: 0x0, symName: __ZNSt3__128__exception_guard_exceptionsINS_6vectorIN2sf6VertexENS_9allocatorIS3_EEE16__destroy_vectorEED1B8ne180100Ev, symObjAddr: 0x19E8, symBinAddr: 0x100006054, symSize: 0x2C }
  - { offset: 0x34BFA, size: 0x8, addend: 0x0, symName: __ZNSt3__128__exception_guard_exceptionsINS_6vectorIN2sf6VertexENS_9allocatorIS3_EEE16__destroy_vectorEEC1B8ne180100ES7_, symObjAddr: 0x1A14, symBinAddr: 0x100006080, symSize: 0x34 }
  - { offset: 0x34C32, size: 0x8, addend: 0x0, symName: __ZNSt3__128__exception_guard_exceptionsINS_6vectorIN2sf6VertexENS_9allocatorIS3_EEE16__destroy_vectorEEC2B8ne180100ES7_, symObjAddr: 0x1A48, symBinAddr: 0x1000060B4, symSize: 0x24 }
  - { offset: 0x34C6A, size: 0x8, addend: 0x0, symName: __ZNKSt3__16vectorIN2sf6VertexENS_9allocatorIS2_EEE8max_sizeEv, symObjAddr: 0x1A6C, symBinAddr: 0x1000060D8, symSize: 0x60 }
  - { offset: 0x34C92, size: 0x8, addend: 0x0, symName: __ZNKSt3__16vectorIN2sf6VertexENS_9allocatorIS2_EEE20__throw_length_errorB8ne180100Ev, symObjAddr: 0x1ACC, symBinAddr: 0x100006138, symSize: 0x1C }
  - { offset: 0x34CB8, size: 0x8, addend: 0x0, symName: __ZNSt3__16vectorIN2sf6VertexENS_9allocatorIS2_EEE9__end_capB8ne180100Ev, symObjAddr: 0x1B28, symBinAddr: 0x100006194, symSize: 0x28 }
  - { offset: 0x34CDE, size: 0x8, addend: 0x0, symName: __ZNKSt3__16vectorIN2sf6VertexENS_9allocatorIS2_EEE14__annotate_newB8ne180100Em, symObjAddr: 0x1B50, symBinAddr: 0x1000061BC, symSize: 0x14 }
  - { offset: 0x34D13, size: 0x8, addend: 0x0, symName: __ZNSt3__116allocator_traitsINS_9allocatorIN2sf6VertexEEEE8max_sizeB8ne180100IS4_vEEmRKS4_, symObjAddr: 0x1B90, symBinAddr: 0x1000061FC, symSize: 0x24 }
  - { offset: 0x34D41, size: 0x8, addend: 0x0, symName: __ZNSt3__114numeric_limitsIlE3maxB8ne180100Ev, symObjAddr: 0x1BB4, symBinAddr: 0x100006220, symSize: 0x14 }
  - { offset: 0x34D55, size: 0x8, addend: 0x0, symName: __ZNKSt3__16__lessIvvEclB8ne180100ImmEEbRKT_RKT0_, symObjAddr: 0x1C1C, symBinAddr: 0x100006288, symSize: 0x34 }
  - { offset: 0x34DA9, size: 0x8, addend: 0x0, symName: __ZNKSt3__19allocatorIN2sf6VertexEE8max_sizeB8ne180100Ev, symObjAddr: 0x1C50, symBinAddr: 0x1000062BC, symSize: 0x18 }
  - { offset: 0x34DCF, size: 0x8, addend: 0x0, symName: __ZNSt3__123__libcpp_numeric_limitsIlLb1EE3maxB8ne180100Ev, symObjAddr: 0x1C68, symBinAddr: 0x1000062D4, symSize: 0x8 }
  - { offset: 0x34DE3, size: 0x8, addend: 0x0, symName: __ZNSt12length_errorC1B8ne180100EPKc, symObjAddr: 0x1CD4, symBinAddr: 0x100006340, symSize: 0x34 }
  - { offset: 0x34E1B, size: 0x8, addend: 0x0, symName: __ZNSt12length_errorC2B8ne180100EPKc, symObjAddr: 0x1D08, symBinAddr: 0x100006374, symSize: 0x44 }
  - { offset: 0x34E53, size: 0x8, addend: 0x0, symName: __ZNSt3__19allocatorIN2sf6VertexEE8allocateB8ne180100Em, symObjAddr: 0x1D4C, symBinAddr: 0x1000063B8, symSize: 0x5C }
  - { offset: 0x34E87, size: 0x8, addend: 0x0, symName: __ZNSt3__117__compressed_pairIPN2sf6VertexENS_9allocatorIS2_EEE5firstB8ne180100Ev, symObjAddr: 0x1E8C, symBinAddr: 0x1000064F8, symSize: 0x24 }
  - { offset: 0x34EAD, size: 0x8, addend: 0x0, symName: __ZNSt3__122__compressed_pair_elemIPN2sf6VertexELi0ELb0EE5__getB8ne180100Ev, symObjAddr: 0x1EB0, symBinAddr: 0x10000651C, symSize: 0x14 }
  - { offset: 0x34EEE, size: 0x8, addend: 0x0, symName: __ZNSt3__16vectorIN2sf6VertexENS_9allocatorIS2_EEE21_ConstructTransactionC1B8ne180100ERS5_m, symObjAddr: 0x1EC4, symBinAddr: 0x100006530, symSize: 0x3C }
  - { offset: 0x34F36, size: 0x8, addend: 0x0, symName: __ZNSt3__16vectorIN2sf6VertexENS_9allocatorIS2_EEE21_ConstructTransactionD1B8ne180100Ev, symObjAddr: 0x1F80, symBinAddr: 0x1000065EC, symSize: 0x2C }
  - { offset: 0x34F60, size: 0x8, addend: 0x0, symName: __ZNSt3__16vectorIN2sf6VertexENS_9allocatorIS2_EEE21_ConstructTransactionC2B8ne180100ERS5_m, symObjAddr: 0x1FAC, symBinAddr: 0x100006618, symSize: 0x4C }
  - { offset: 0x34FCA, size: 0x8, addend: 0x0, symName: __ZNSt3__14pairIPN2sf6VertexES3_EC1B8ne180100IS3_S3_Li0EEEOT_OT0_, symObjAddr: 0x2128, symBinAddr: 0x100006794, symSize: 0x3C }
  - { offset: 0x35028, size: 0x8, addend: 0x0, symName: __ZNSt3__14pairIPN2sf6VertexES3_EC2B8ne180100IS3_S3_Li0EEEOT_OT0_, symObjAddr: 0x2164, symBinAddr: 0x1000067D0, symSize: 0x34 }
  - { offset: 0x35090, size: 0x8, addend: 0x0, symName: __ZNKSt3__114__copy_trivialclB8ne180100IN2sf6VertexES3_Li0EEENS_4pairIPT_PT0_EES6_S6_S8_, symObjAddr: 0x2314, symBinAddr: 0x100006980, symSize: 0x48 }
  - { offset: 0x350F8, size: 0x8, addend: 0x0, symName: __ZNSt3__14pairIPN2sf6VertexES3_EC1B8ne180100IRS3_S3_Li0EEEOT_OT0_, symObjAddr: 0x24B0, symBinAddr: 0x100006B1C, symSize: 0x3C }
  - { offset: 0x35156, size: 0x8, addend: 0x0, symName: __ZNSt3__14pairIPN2sf6VertexES3_EC2B8ne180100IRS3_S3_Li0EEEOT_OT0_, symObjAddr: 0x24EC, symBinAddr: 0x100006B58, symSize: 0x34 }
  - { offset: 0x351B4, size: 0x8, addend: 0x0, symName: __ZNSt3__118__unwrap_iter_implIPN2sf6VertexELb1EE8__unwrapB8ne180100ES3_, symObjAddr: 0x2520, symBinAddr: 0x100006B8C, symSize: 0x24 }
  - { offset: 0x351D7, size: 0x8, addend: 0x0, symName: __ZNSt3__118__unwrap_iter_implIPN2sf6VertexELb1EE8__rewrapB8ne180100ES3_S3_, symObjAddr: 0x2544, symBinAddr: 0x100006BB0, symSize: 0x58 }
  - { offset: 0x35208, size: 0x8, addend: 0x0, symName: __ZNSt3__16vectorIN2sf6VertexENS_9allocatorIS2_EEE21_ConstructTransactionD2B8ne180100Ev, symObjAddr: 0x259C, symBinAddr: 0x100006C08, symSize: 0x20 }
  - { offset: 0x35232, size: 0x8, addend: 0x0, symName: __ZNSt3__128__exception_guard_exceptionsINS_6vectorIN2sf6VertexENS_9allocatorIS3_EEE16__destroy_vectorEED2B8ne180100Ev, symObjAddr: 0x25BC, symBinAddr: 0x100006C28, symSize: 0x48 }
  - { offset: 0x3525C, size: 0x8, addend: 0x0, symName: __ZNSt3__111char_traitsIcE6lengthB8ne180100EPKc, symObjAddr: 0x27F0, symBinAddr: 0x100006E5C, symSize: 0x34 }
  - { offset: 0x352A0, size: 0x8, addend: 0x0, symName: __ZNKSt3__113basic_ostreamIcNS_11char_traitsIcEEE6sentrycvbB8ne180100Ev, symObjAddr: 0x2824, symBinAddr: 0x100006E90, symSize: 0x1C }
  - { offset: 0x352C6, size: 0x8, addend: 0x0, symName: __ZNSt3__119ostreambuf_iteratorIcNS_11char_traitsIcEEEC1B8ne180100ERNS_13basic_ostreamIcS2_EE, symObjAddr: 0x2A80, symBinAddr: 0x1000070EC, symSize: 0x34 }
  - { offset: 0x352FE, size: 0x8, addend: 0x0, symName: __ZNKSt3__18ios_base5flagsB8ne180100Ev, symObjAddr: 0x2AB4, symBinAddr: 0x100007120, symSize: 0x18 }
  - { offset: 0x35326, size: 0x8, addend: 0x0, symName: __ZNKSt3__19basic_iosIcNS_11char_traitsIcEEE4fillB8ne180100Ev, symObjAddr: 0x2ACC, symBinAddr: 0x100007138, symSize: 0x64 }
  - { offset: 0x3534E, size: 0x8, addend: 0x0, symName: __ZNKSt3__119ostreambuf_iteratorIcNS_11char_traitsIcEEE6failedB8ne180100Ev, symObjAddr: 0x2B30, symBinAddr: 0x10000719C, symSize: 0x24 }
  - { offset: 0x35374, size: 0x8, addend: 0x0, symName: __ZNSt3__19basic_iosIcNS_11char_traitsIcEEE8setstateB8ne180100Ej, symObjAddr: 0x2B54, symBinAddr: 0x1000071C0, symSize: 0x2C }
  - { offset: 0x353A9, size: 0x8, addend: 0x0, symName: __ZNKSt3__18ios_base5widthB8ne180100Ev, symObjAddr: 0x2B80, symBinAddr: 0x1000071EC, symSize: 0x18 }
  - { offset: 0x353D1, size: 0x8, addend: 0x0, symName: __ZNSt3__115basic_streambufIcNS_11char_traitsIcEEE5sputnB8ne180100EPKcl, symObjAddr: 0x2B98, symBinAddr: 0x100007204, symSize: 0x3C }
  - { offset: 0x35413, size: 0x8, addend: 0x0, symName: __ZNSt3__112basic_stringIcNS_11char_traitsIcEENS_9allocatorIcEEEC1B8ne180100Emc, symObjAddr: 0x2BD4, symBinAddr: 0x100007240, symSize: 0x3C }
  - { offset: 0x3545B, size: 0x8, addend: 0x0, symName: __ZNSt3__112basic_stringIcNS_11char_traitsIcEENS_9allocatorIcEEE4dataB8ne180100Ev, symObjAddr: 0x2C10, symBinAddr: 0x10000727C, symSize: 0x28 }
  - { offset: 0x35481, size: 0x8, addend: 0x0, symName: __ZNSt3__18ios_base5widthB8ne180100El, symObjAddr: 0x2C38, symBinAddr: 0x1000072A4, symSize: 0x2C }
  - { offset: 0x354C7, size: 0x8, addend: 0x0, symName: __ZNSt3__112basic_stringIcNS_11char_traitsIcEENS_9allocatorIcEEEC2B8ne180100Emc, symObjAddr: 0x2C64, symBinAddr: 0x1000072D0, symSize: 0x4C }
  - { offset: 0x35515, size: 0x8, addend: 0x0, symName: __ZNSt3__117__compressed_pairINS_12basic_stringIcNS_11char_traitsIcEENS_9allocatorIcEEE5__repES5_EC1B8ne180100INS_18__default_init_tagESA_EEOT_OT0_, symObjAddr: 0x2CB0, symBinAddr: 0x10000731C, symSize: 0x3C }
  - { offset: 0x3556D, size: 0x8, addend: 0x0, symName: __ZNSt3__117__compressed_pairINS_12basic_stringIcNS_11char_traitsIcEENS_9allocatorIcEEE5__repES5_EC2B8ne180100INS_18__default_init_tagESA_EEOT_OT0_, symObjAddr: 0x2CEC, symBinAddr: 0x100007358, symSize: 0x3C }
  - { offset: 0x355C5, size: 0x8, addend: 0x0, symName: __ZNSt3__122__compressed_pair_elemINS_12basic_stringIcNS_11char_traitsIcEENS_9allocatorIcEEE5__repELi0ELb0EEC2B8ne180100ENS_18__default_init_tagE, symObjAddr: 0x2D28, symBinAddr: 0x100007394, symSize: 0x14 }
  - { offset: 0x355FA, size: 0x8, addend: 0x0, symName: __ZNSt3__122__compressed_pair_elemINS_9allocatorIcEELi1ELb1EEC2B8ne180100ENS_18__default_init_tagE, symObjAddr: 0x2D3C, symBinAddr: 0x1000073A8, symSize: 0x2C }
  - { offset: 0x3562F, size: 0x8, addend: 0x0, symName: __ZNSt3__19allocatorIcEC2B8ne180100Ev, symObjAddr: 0x2D68, symBinAddr: 0x1000073D4, symSize: 0x2C }
  - { offset: 0x35659, size: 0x8, addend: 0x0, symName: __ZNSt3__116__non_trivial_ifILb1ENS_9allocatorIcEEEC2B8ne180100Ev, symObjAddr: 0x2D94, symBinAddr: 0x100007400, symSize: 0x14 }
  - { offset: 0x35683, size: 0x8, addend: 0x0, symName: __ZNSt3__112basic_stringIcNS_11char_traitsIcEENS_9allocatorIcEEE13__get_pointerB8ne180100Ev, symObjAddr: 0x2DBC, symBinAddr: 0x100007428, symSize: 0x54 }
  - { offset: 0x356A9, size: 0x8, addend: 0x0, symName: __ZNKSt3__112basic_stringIcNS_11char_traitsIcEENS_9allocatorIcEEE9__is_longB8ne180100Ev, symObjAddr: 0x2E10, symBinAddr: 0x10000747C, symSize: 0x38 }
  - { offset: 0x356CF, size: 0x8, addend: 0x0, symName: __ZNSt3__112basic_stringIcNS_11char_traitsIcEENS_9allocatorIcEEE18__get_long_pointerB8ne180100Ev, symObjAddr: 0x2E48, symBinAddr: 0x1000074B4, symSize: 0x28 }
  - { offset: 0x356F5, size: 0x8, addend: 0x0, symName: __ZNSt3__112basic_stringIcNS_11char_traitsIcEENS_9allocatorIcEEE19__get_short_pointerB8ne180100Ev, symObjAddr: 0x2E70, symBinAddr: 0x1000074DC, symSize: 0x28 }
  - { offset: 0x3571B, size: 0x8, addend: 0x0, symName: __ZNKSt3__117__compressed_pairINS_12basic_stringIcNS_11char_traitsIcEENS_9allocatorIcEEE5__repES5_E5firstB8ne180100Ev, symObjAddr: 0x2E98, symBinAddr: 0x100007504, symSize: 0x24 }
  - { offset: 0x35741, size: 0x8, addend: 0x0, symName: __ZNKSt3__122__compressed_pair_elemINS_12basic_stringIcNS_11char_traitsIcEENS_9allocatorIcEEE5__repELi0ELb0EE5__getB8ne180100Ev, symObjAddr: 0x2EBC, symBinAddr: 0x100007528, symSize: 0x14 }
  - { offset: 0x35767, size: 0x8, addend: 0x0, symName: __ZNSt3__117__compressed_pairINS_12basic_stringIcNS_11char_traitsIcEENS_9allocatorIcEEE5__repES5_E5firstB8ne180100Ev, symObjAddr: 0x2ED0, symBinAddr: 0x10000753C, symSize: 0x24 }
  - { offset: 0x3578D, size: 0x8, addend: 0x0, symName: __ZNSt3__122__compressed_pair_elemINS_12basic_stringIcNS_11char_traitsIcEENS_9allocatorIcEEE5__repELi0ELb0EE5__getB8ne180100Ev, symObjAddr: 0x2EF4, symBinAddr: 0x100007560, symSize: 0x14 }
  - { offset: 0x357B3, size: 0x8, addend: 0x0, symName: __ZNSt3__114pointer_traitsIPcE10pointer_toB8ne180100ERc, symObjAddr: 0x2F08, symBinAddr: 0x100007574, symSize: 0x14 }
  - { offset: 0x357D6, size: 0x8, addend: 0x0, symName: __ZNSt3__119ostreambuf_iteratorIcNS_11char_traitsIcEEEC2B8ne180100ERNS_13basic_ostreamIcS2_EE, symObjAddr: 0x2F1C, symBinAddr: 0x100007588, symSize: 0x54 }
  - { offset: 0x3580E, size: 0x8, addend: 0x0, symName: __ZNKSt3__19basic_iosIcNS_11char_traitsIcEEE5rdbufB8ne180100Ev, symObjAddr: 0x2F70, symBinAddr: 0x1000075DC, symSize: 0x24 }
  - { offset: 0x35836, size: 0x8, addend: 0x0, symName: __ZNKSt3__18ios_base5rdbufB8ne180100Ev, symObjAddr: 0x2F94, symBinAddr: 0x100007600, symSize: 0x18 }
  - { offset: 0x3585C, size: 0x8, addend: 0x0, symName: __ZNSt3__111char_traitsIcE11eq_int_typeB8ne180100Eii, symObjAddr: 0x2FAC, symBinAddr: 0x100007618, symSize: 0x28 }
  - { offset: 0x3588F, size: 0x8, addend: 0x0, symName: __ZNSt3__111char_traitsIcE3eofB8ne180100Ev, symObjAddr: 0x2FD4, symBinAddr: 0x100007640, symSize: 0x8 }
  - { offset: 0x358A3, size: 0x8, addend: 0x0, symName: __ZNKSt3__19basic_iosIcNS_11char_traitsIcEEE5widenB8ne180100Ec, symObjAddr: 0x2FDC, symBinAddr: 0x100007648, symSize: 0x84 }
  - { offset: 0x3590C, size: 0x8, addend: 0x0, symName: __ZNKSt3__15ctypeIcE5widenB8ne180100Ec, symObjAddr: 0x308C, symBinAddr: 0x1000076F8, symSize: 0x38 }
  - { offset: 0x35941, size: 0x8, addend: 0x0, symName: __ZNSt3__18ios_base8setstateB8ne180100Ej, symObjAddr: 0x30C4, symBinAddr: 0x100007730, symSize: 0x34 }
...
